

Microchip MPLAB XC8 Assembler V2.40 build 20220703182018 
                                                                                               Tue Mar 12 10:55:23 2024

Microchip MPLAB XC8 C Compiler v2.40 (Free license) build 20220703182018 Og1 
     1                           	processor	16F18877
     2                           	pagewidth 120
     3                           	opt	flic
     4                           	psect	nvBANK0,global,class=BANK0,space=1,delta=1,noexec
     5                           	psect	stringtext1,global,class=STRCODE,delta=2,noexec
     6                           	psect	stringtext2,global,class=STRCODE,delta=2,noexec
     7                           	psect	cinit,global,class=CODE,merge=1,delta=2
     8                           	psect	cstackCOMMON,global,class=COMMON,space=1,delta=1,noexec
     9                           	psect	cstackBANK0,global,class=BANK0,space=1,delta=1,noexec
    10                           	psect	maintext,global,class=CODE,merge=1,split=1,delta=2
    11                           	psect	text1,local,class=CODE,merge=1,delta=2
    12                           	psect	text2,local,class=CODE,merge=1,delta=2
    13                           	psect	text3,local,class=CODE,merge=1,delta=2
    14                           	psect	text4,local,class=CODE,merge=1,delta=2
    15                           	psect	text5,local,class=CODE,merge=1,delta=2
    16                           	psect	text6,local,class=CODE,merge=1,delta=2
    17                           	psect	text7,local,class=CODE,merge=1,delta=2
    18                           	psect	intentry,global,class=CODE,delta=2
    19                           	psect	idloc,global,abs,ovrld,class=IDLOC,space=5,delta=2,noexec
    20                           	psect	config,global,abs,ovrld,class=CONFIG,space=4,delta=2,noexec
    21                           	dabs	1,0x7E,2
    22     0000                     
    23                           ; Version 2.40
    24                           ; Generated 02/12/2021 GMT
    25                           ; 
    26                           ; Copyright © 2021, Microchip Technology Inc. and its subsidiaries ("Microchip")
    27                           ; All rights reserved.
    28                           ; 
    29                           ; This software is developed by Microchip Technology Inc. and its subsidiaries ("Microch
      +                          ip").
    30                           ; 
    31                           ; Redistribution and use in source and binary forms, with or without modification, are
    32                           ; permitted provided that the following conditions are met:
    33                           ; 
    34                           ;     1. Redistributions of source code must retain the above copyright notice, this lis
      +                          t of
    35                           ;        conditions and the following disclaimer.
    36                           ; 
    37                           ;     2. Redistributions in binary form must reproduce the above copyright notice, this 
      +                          list
    38                           ;        of conditions and the following disclaimer in the documentation and/or other
    39                           ;        materials provided with the distribution. Publication is not required when
    40                           ;        this file is used in an embedded application.
    41                           ; 
    42                           ;     3. Microchip's name may not be used to endorse or promote products derived from th
      +                          is
    43                           ;        software without specific prior written permission.
    44                           ; 
    45                           ; THIS SOFTWARE IS PROVIDED BY MICROCHIP "AS IS" AND ANY EXPRESS OR IMPLIED WARRANTIES,
    46                           ; INCLUDING, BUT NOT LIMITED TO, THE IMPLIED WARRANTIES OF MERCHANTABILITY AND FITNESS F
      +                          OR
    47                           ; PURPOSE ARE DISCLAIMED.  IN NO EVENT SHALL MICROCHIP BE LIABLE FOR ANY DIRECT, INDIREC
      +                          T,
    48                           ; INCIDENTAL, SPECIAL, EXEMPLARY, OR CONSEQUENTIAL DAMAGES (INCLUDING BUT NOT LIMITED TO
    49                           ; PROCUREMENT OF SUBSTITUTE GOODS OR SERVICES; LOSS OF USE, DATA OR PROFITS; OR BUSINESS
    50                           ; INTERRUPTION) HOWSOEVER CAUSED AND ON ANY THEORY OF LIABILITY, WHETHER IN CONTRACT, ST
      +                          RICT
    51                           ; LIABILITY, OR TORT (INCLUDING NEGLIGENCE OR OTHERWISE) ARISING IN ANY WAY OUT OF THE U
      +                          SE OF
    52                           ; THIS SOFTWARE, EVEN IF ADVISED OF THE POSSIBILITY OF SUCH DAMAGE.
    53                           ; 
    54                           ; 
    55                           ; Code-generator required, PIC16F18877 Definitions
    56                           ; 
    57                           ; SFR Addresses
    58     0000                     	;# 
    59     0001                     	;# 
    60     0002                     	;# 
    61     0003                     	;# 
    62     0004                     	;# 
    63     0005                     	;# 
    64     0006                     	;# 
    65     0007                     	;# 
    66     0008                     	;# 
    67     0009                     	;# 
    68     000A                     	;# 
    69     000B                     	;# 
    70     000C                     	;# 
    71     000D                     	;# 
    72     000E                     	;# 
    73     000F                     	;# 
    74     0010                     	;# 
    75     0011                     	;# 
    76     0012                     	;# 
    77     0013                     	;# 
    78     0014                     	;# 
    79     0015                     	;# 
    80     0016                     	;# 
    81     0017                     	;# 
    82     0018                     	;# 
    83     0019                     	;# 
    84     001A                     	;# 
    85     001C                     	;# 
    86     001C                     	;# 
    87     001D                     	;# 
    88     001D                     	;# 
    89     001E                     	;# 
    90     001F                     	;# 
    91     008C                     	;# 
    92     008C                     	;# 
    93     008D                     	;# 
    94     008E                     	;# 
    95     008E                     	;# 
    96     008F                     	;# 
    97     0090                     	;# 
    98     0090                     	;# 
    99     0091                     	;# 
   100     0093                     	;# 
   101     0094                     	;# 
   102     0095                     	;# 
   103     0096                     	;# 
   104     0097                     	;# 
   105     0098                     	;# 
   106     0099                     	;# 
   107     009A                     	;# 
   108     009B                     	;# 
   109     009C                     	;# 
   110     009D                     	;# 
   111     009E                     	;# 
   112     010C                     	;# 
   113     010D                     	;# 
   114     010E                     	;# 
   115     010E                     	;# 
   116     010F                     	;# 
   117     0110                     	;# 
   118     0110                     	;# 
   119     0111                     	;# 
   120     0112                     	;# 
   121     0112                     	;# 
   122     0113                     	;# 
   123     0114                     	;# 
   124     0114                     	;# 
   125     0115                     	;# 
   126     0116                     	;# 
   127     0116                     	;# 
   128     0117                     	;# 
   129     0119                     	;# 
   130     0119                     	;# 
   131     0119                     	;# 
   132     011A                     	;# 
   133     011A                     	;# 
   134     011A                     	;# 
   135     011B                     	;# 
   136     011B                     	;# 
   137     011B                     	;# 
   138     011B                     	;# 
   139     011B                     	;# 
   140     011C                     	;# 
   141     011C                     	;# 
   142     011C                     	;# 
   143     011D                     	;# 
   144     011D                     	;# 
   145     011D                     	;# 
   146     011E                     	;# 
   147     011E                     	;# 
   148     011E                     	;# 
   149     011F                     	;# 
   150     011F                     	;# 
   151     011F                     	;# 
   152     011F                     	;# 
   153     011F                     	;# 
   154     018C                     	;# 
   155     018D                     	;# 
   156     018E                     	;# 
   157     018F                     	;# 
   158     0190                     	;# 
   159     0191                     	;# 
   160     0192                     	;# 
   161     0196                     	;# 
   162     0197                     	;# 
   163     0198                     	;# 
   164     0199                     	;# 
   165     019A                     	;# 
   166     019B                     	;# 
   167     019C                     	;# 
   168     020C                     	;# 
   169     020C                     	;# 
   170     020D                     	;# 
   171     020E                     	;# 
   172     020F                     	;# 
   173     020F                     	;# 
   174     0210                     	;# 
   175     0210                     	;# 
   176     0211                     	;# 
   177     0211                     	;# 
   178     0212                     	;# 
   179     0212                     	;# 
   180     0213                     	;# 
   181     0214                     	;# 
   182     0215                     	;# 
   183     0215                     	;# 
   184     0216                     	;# 
   185     0216                     	;# 
   186     0217                     	;# 
   187     0217                     	;# 
   188     0218                     	;# 
   189     0218                     	;# 
   190     0219                     	;# 
   191     021A                     	;# 
   192     021B                     	;# 
   193     021B                     	;# 
   194     021C                     	;# 
   195     021C                     	;# 
   196     021D                     	;# 
   197     021D                     	;# 
   198     021E                     	;# 
   199     021F                     	;# 
   200     028C                     	;# 
   201     028C                     	;# 
   202     028D                     	;# 
   203     028D                     	;# 
   204     028E                     	;# 
   205     028F                     	;# 
   206     0290                     	;# 
   207     0290                     	;# 
   208     0291                     	;# 
   209     0292                     	;# 
   210     0292                     	;# 
   211     0293                     	;# 
   212     0293                     	;# 
   213     0294                     	;# 
   214     0295                     	;# 
   215     0296                     	;# 
   216     0296                     	;# 
   217     0297                     	;# 
   218     0298                     	;# 
   219     0298                     	;# 
   220     0299                     	;# 
   221     0299                     	;# 
   222     029A                     	;# 
   223     029B                     	;# 
   224     029C                     	;# 
   225     029C                     	;# 
   226     029D                     	;# 
   227     030C                     	;# 
   228     030C                     	;# 
   229     030D                     	;# 
   230     030E                     	;# 
   231     030F                     	;# 
   232     0310                     	;# 
   233     0310                     	;# 
   234     0311                     	;# 
   235     0312                     	;# 
   236     0313                     	;# 
   237     0314                     	;# 
   238     0314                     	;# 
   239     0315                     	;# 
   240     0316                     	;# 
   241     0317                     	;# 
   242     0318                     	;# 
   243     0318                     	;# 
   244     0319                     	;# 
   245     031A                     	;# 
   246     031B                     	;# 
   247     031C                     	;# 
   248     031C                     	;# 
   249     031D                     	;# 
   250     031E                     	;# 
   251     031F                     	;# 
   252     038C                     	;# 
   253     038C                     	;# 
   254     038D                     	;# 
   255     038E                     	;# 
   256     0390                     	;# 
   257     0390                     	;# 
   258     0391                     	;# 
   259     0392                     	;# 
   260     040C                     	;# 
   261     040D                     	;# 
   262     040E                     	;# 
   263     040F                     	;# 
   264     0410                     	;# 
   265     0411                     	;# 
   266     0416                     	;# 
   267     0416                     	;# 
   268     0417                     	;# 
   269     0418                     	;# 
   270     0418                     	;# 
   271     0419                     	;# 
   272     041A                     	;# 
   273     041A                     	;# 
   274     041B                     	;# 
   275     041C                     	;# 
   276     041C                     	;# 
   277     041D                     	;# 
   278     041E                     	;# 
   279     041F                     	;# 
   280     048C                     	;# 
   281     048C                     	;# 
   282     048D                     	;# 
   283     048E                     	;# 
   284     048F                     	;# 
   285     048F                     	;# 
   286     0490                     	;# 
   287     0491                     	;# 
   288     0492                     	;# 
   289     0492                     	;# 
   290     0493                     	;# 
   291     0494                     	;# 
   292     0495                     	;# 
   293     0495                     	;# 
   294     0496                     	;# 
   295     0497                     	;# 
   296     0498                     	;# 
   297     0499                     	;# 
   298     049A                     	;# 
   299     049B                     	;# 
   300     049C                     	;# 
   301     049D                     	;# 
   302     050C                     	;# 
   303     050C                     	;# 
   304     050D                     	;# 
   305     050E                     	;# 
   306     050F                     	;# 
   307     050F                     	;# 
   308     0510                     	;# 
   309     0511                     	;# 
   310     0512                     	;# 
   311     0512                     	;# 
   312     0513                     	;# 
   313     0514                     	;# 
   314     0515                     	;# 
   315     0515                     	;# 
   316     0516                     	;# 
   317     0517                     	;# 
   318     0518                     	;# 
   319     0519                     	;# 
   320     051A                     	;# 
   321     051B                     	;# 
   322     051C                     	;# 
   323     051D                     	;# 
   324     058C                     	;# 
   325     058C                     	;# 
   326     058D                     	;# 
   327     058E                     	;# 
   328     058F                     	;# 
   329     058F                     	;# 
   330     0590                     	;# 
   331     0591                     	;# 
   332     0592                     	;# 
   333     0593                     	;# 
   334     060C                     	;# 
   335     060D                     	;# 
   336     060E                     	;# 
   337     060F                     	;# 
   338     0610                     	;# 
   339     0611                     	;# 
   340     0612                     	;# 
   341     0613                     	;# 
   342     0614                     	;# 
   343     0616                     	;# 
   344     0617                     	;# 
   345     0618                     	;# 
   346     0619                     	;# 
   347     061A                     	;# 
   348     061B                     	;# 
   349     061C                     	;# 
   350     061D                     	;# 
   351     061E                     	;# 
   352     068C                     	;# 
   353     068D                     	;# 
   354     068E                     	;# 
   355     068F                     	;# 
   356     0690                     	;# 
   357     0691                     	;# 
   358     0692                     	;# 
   359     0693                     	;# 
   360     0694                     	;# 
   361     070C                     	;# 
   362     070D                     	;# 
   363     070E                     	;# 
   364     070F                     	;# 
   365     0710                     	;# 
   366     0711                     	;# 
   367     0712                     	;# 
   368     0713                     	;# 
   369     0714                     	;# 
   370     0716                     	;# 
   371     0717                     	;# 
   372     0718                     	;# 
   373     0719                     	;# 
   374     071A                     	;# 
   375     071B                     	;# 
   376     071C                     	;# 
   377     071D                     	;# 
   378     071E                     	;# 
   379     0796                     	;# 
   380     0797                     	;# 
   381     0798                     	;# 
   382     0799                     	;# 
   383     079A                     	;# 
   384     079B                     	;# 
   385     080C                     	;# 
   386     080D                     	;# 
   387     080E                     	;# 
   388     080F                     	;# 
   389     0810                     	;# 
   390     0811                     	;# 
   391     0812                     	;# 
   392     0813                     	;# 
   393     0814                     	;# 
   394     081A                     	;# 
   395     081B                     	;# 
   396     081C                     	;# 
   397     081D                     	;# 
   398     081E                     	;# 
   399     081F                     	;# 
   400     088C                     	;# 
   401     088D                     	;# 
   402     088E                     	;# 
   403     088F                     	;# 
   404     0890                     	;# 
   405     0891                     	;# 
   406     0892                     	;# 
   407     0893                     	;# 
   408     0895                     	;# 
   409     0896                     	;# 
   410     0897                     	;# 
   411     0898                     	;# 
   412     0899                     	;# 
   413     089A                     	;# 
   414     089B                     	;# 
   415     090C                     	;# 
   416     090E                     	;# 
   417     090F                     	;# 
   418     091F                     	;# 
   419     098F                     	;# 
   420     098F                     	;# 
   421     0990                     	;# 
   422     0991                     	;# 
   423     0992                     	;# 
   424     0993                     	;# 
   425     0994                     	;# 
   426     0995                     	;# 
   427     0996                     	;# 
   428     0997                     	;# 
   429     1E0F                     	;# 
   430     1E10                     	;# 
   431     1E11                     	;# 
   432     1E12                     	;# 
   433     1E13                     	;# 
   434     1E14                     	;# 
   435     1E15                     	;# 
   436     1E16                     	;# 
   437     1E17                     	;# 
   438     1E18                     	;# 
   439     1E19                     	;# 
   440     1E1A                     	;# 
   441     1E1B                     	;# 
   442     1E1C                     	;# 
   443     1E1D                     	;# 
   444     1E1E                     	;# 
   445     1E1F                     	;# 
   446     1E20                     	;# 
   447     1E21                     	;# 
   448     1E22                     	;# 
   449     1E23                     	;# 
   450     1E24                     	;# 
   451     1E25                     	;# 
   452     1E26                     	;# 
   453     1E27                     	;# 
   454     1E28                     	;# 
   455     1E29                     	;# 
   456     1E2A                     	;# 
   457     1E2B                     	;# 
   458     1E2C                     	;# 
   459     1E2D                     	;# 
   460     1E2E                     	;# 
   461     1E2F                     	;# 
   462     1E30                     	;# 
   463     1E31                     	;# 
   464     1E32                     	;# 
   465     1E33                     	;# 
   466     1E34                     	;# 
   467     1E35                     	;# 
   468     1E36                     	;# 
   469     1E37                     	;# 
   470     1E8F                     	;# 
   471     1E90                     	;# 
   472     1E91                     	;# 
   473     1E92                     	;# 
   474     1E93                     	;# 
   475     1E94                     	;# 
   476     1E95                     	;# 
   477     1E96                     	;# 
   478     1E97                     	;# 
   479     1E9C                     	;# 
   480     1E9D                     	;# 
   481     1E9E                     	;# 
   482     1EA1                     	;# 
   483     1EA2                     	;# 
   484     1EA3                     	;# 
   485     1EA4                     	;# 
   486     1EA5                     	;# 
   487     1EA9                     	;# 
   488     1EAA                     	;# 
   489     1EAB                     	;# 
   490     1EAC                     	;# 
   491     1EB1                     	;# 
   492     1EB2                     	;# 
   493     1EB3                     	;# 
   494     1EB8                     	;# 
   495     1EB9                     	;# 
   496     1EBA                     	;# 
   497     1EBB                     	;# 
   498     1EBC                     	;# 
   499     1EBD                     	;# 
   500     1EBE                     	;# 
   501     1EC3                     	;# 
   502     1EC5                     	;# 
   503     1EC6                     	;# 
   504     1EC7                     	;# 
   505     1EC8                     	;# 
   506     1EC9                     	;# 
   507     1ECA                     	;# 
   508     1ECB                     	;# 
   509     1ECC                     	;# 
   510     1F10                     	;# 
   511     1F11                     	;# 
   512     1F12                     	;# 
   513     1F13                     	;# 
   514     1F14                     	;# 
   515     1F15                     	;# 
   516     1F16                     	;# 
   517     1F17                     	;# 
   518     1F18                     	;# 
   519     1F19                     	;# 
   520     1F1A                     	;# 
   521     1F1B                     	;# 
   522     1F1C                     	;# 
   523     1F1D                     	;# 
   524     1F1E                     	;# 
   525     1F1F                     	;# 
   526     1F20                     	;# 
   527     1F21                     	;# 
   528     1F22                     	;# 
   529     1F23                     	;# 
   530     1F24                     	;# 
   531     1F25                     	;# 
   532     1F26                     	;# 
   533     1F27                     	;# 
   534     1F28                     	;# 
   535     1F29                     	;# 
   536     1F2A                     	;# 
   537     1F2B                     	;# 
   538     1F2C                     	;# 
   539     1F2D                     	;# 
   540     1F2E                     	;# 
   541     1F2F                     	;# 
   542     1F30                     	;# 
   543     1F31                     	;# 
   544     1F32                     	;# 
   545     1F38                     	;# 
   546     1F39                     	;# 
   547     1F3A                     	;# 
   548     1F3B                     	;# 
   549     1F3C                     	;# 
   550     1F3D                     	;# 
   551     1F3E                     	;# 
   552     1F3F                     	;# 
   553     1F40                     	;# 
   554     1F41                     	;# 
   555     1F43                     	;# 
   556     1F44                     	;# 
   557     1F45                     	;# 
   558     1F46                     	;# 
   559     1F47                     	;# 
   560     1F48                     	;# 
   561     1F49                     	;# 
   562     1F4A                     	;# 
   563     1F4B                     	;# 
   564     1F4C                     	;# 
   565     1F4E                     	;# 
   566     1F4F                     	;# 
   567     1F50                     	;# 
   568     1F51                     	;# 
   569     1F52                     	;# 
   570     1F53                     	;# 
   571     1F54                     	;# 
   572     1F55                     	;# 
   573     1F56                     	;# 
   574     1F57                     	;# 
   575     1F59                     	;# 
   576     1F5A                     	;# 
   577     1F5B                     	;# 
   578     1F5C                     	;# 
   579     1F5D                     	;# 
   580     1F61                     	;# 
   581     1F62                     	;# 
   582     1F64                     	;# 
   583     1F65                     	;# 
   584     1F66                     	;# 
   585     1F67                     	;# 
   586     1F68                     	;# 
   587     1F69                     	;# 
   588     1F6A                     	;# 
   589     1F6B                     	;# 
   590     1F6C                     	;# 
   591     1F6D                     	;# 
   592     1FE4                     	;# 
   593     1FE5                     	;# 
   594     1FE6                     	;# 
   595     1FE7                     	;# 
   596     1FE8                     	;# 
   597     1FE9                     	;# 
   598     1FEA                     	;# 
   599     1FEB                     	;# 
   600     1FED                     	;# 
   601     1FEE                     	;# 
   602     1FEF                     	;# 
   603     0000                     	;# 
   604     0001                     	;# 
   605     0002                     	;# 
   606     0003                     	;# 
   607     0004                     	;# 
   608     0005                     	;# 
   609     0006                     	;# 
   610     0007                     	;# 
   611     0008                     	;# 
   612     0009                     	;# 
   613     000A                     	;# 
   614     000B                     	;# 
   615     000C                     	;# 
   616     000D                     	;# 
   617     000E                     	;# 
   618     000F                     	;# 
   619     0010                     	;# 
   620     0011                     	;# 
   621     0012                     	;# 
   622     0013                     	;# 
   623     0014                     	;# 
   624     0015                     	;# 
   625     0016                     	;# 
   626     0017                     	;# 
   627     0018                     	;# 
   628     0019                     	;# 
   629     001A                     	;# 
   630     001C                     	;# 
   631     001C                     	;# 
   632     001D                     	;# 
   633     001D                     	;# 
   634     001E                     	;# 
   635     001F                     	;# 
   636     008C                     	;# 
   637     008C                     	;# 
   638     008D                     	;# 
   639     008E                     	;# 
   640     008E                     	;# 
   641     008F                     	;# 
   642     0090                     	;# 
   643     0090                     	;# 
   644     0091                     	;# 
   645     0093                     	;# 
   646     0094                     	;# 
   647     0095                     	;# 
   648     0096                     	;# 
   649     0097                     	;# 
   650     0098                     	;# 
   651     0099                     	;# 
   652     009A                     	;# 
   653     009B                     	;# 
   654     009C                     	;# 
   655     009D                     	;# 
   656     009E                     	;# 
   657     010C                     	;# 
   658     010D                     	;# 
   659     010E                     	;# 
   660     010E                     	;# 
   661     010F                     	;# 
   662     0110                     	;# 
   663     0110                     	;# 
   664     0111                     	;# 
   665     0112                     	;# 
   666     0112                     	;# 
   667     0113                     	;# 
   668     0114                     	;# 
   669     0114                     	;# 
   670     0115                     	;# 
   671     0116                     	;# 
   672     0116                     	;# 
   673     0117                     	;# 
   674     0119                     	;# 
   675     0119                     	;# 
   676     0119                     	;# 
   677     011A                     	;# 
   678     011A                     	;# 
   679     011A                     	;# 
   680     011B                     	;# 
   681     011B                     	;# 
   682     011B                     	;# 
   683     011B                     	;# 
   684     011B                     	;# 
   685     011C                     	;# 
   686     011C                     	;# 
   687     011C                     	;# 
   688     011D                     	;# 
   689     011D                     	;# 
   690     011D                     	;# 
   691     011E                     	;# 
   692     011E                     	;# 
   693     011E                     	;# 
   694     011F                     	;# 
   695     011F                     	;# 
   696     011F                     	;# 
   697     011F                     	;# 
   698     011F                     	;# 
   699     018C                     	;# 
   700     018D                     	;# 
   701     018E                     	;# 
   702     018F                     	;# 
   703     0190                     	;# 
   704     0191                     	;# 
   705     0192                     	;# 
   706     0196                     	;# 
   707     0197                     	;# 
   708     0198                     	;# 
   709     0199                     	;# 
   710     019A                     	;# 
   711     019B                     	;# 
   712     019C                     	;# 
   713     020C                     	;# 
   714     020C                     	;# 
   715     020D                     	;# 
   716     020E                     	;# 
   717     020F                     	;# 
   718     020F                     	;# 
   719     0210                     	;# 
   720     0210                     	;# 
   721     0211                     	;# 
   722     0211                     	;# 
   723     0212                     	;# 
   724     0212                     	;# 
   725     0213                     	;# 
   726     0214                     	;# 
   727     0215                     	;# 
   728     0215                     	;# 
   729     0216                     	;# 
   730     0216                     	;# 
   731     0217                     	;# 
   732     0217                     	;# 
   733     0218                     	;# 
   734     0218                     	;# 
   735     0219                     	;# 
   736     021A                     	;# 
   737     021B                     	;# 
   738     021B                     	;# 
   739     021C                     	;# 
   740     021C                     	;# 
   741     021D                     	;# 
   742     021D                     	;# 
   743     021E                     	;# 
   744     021F                     	;# 
   745     028C                     	;# 
   746     028C                     	;# 
   747     028D                     	;# 
   748     028D                     	;# 
   749     028E                     	;# 
   750     028F                     	;# 
   751     0290                     	;# 
   752     0290                     	;# 
   753     0291                     	;# 
   754     0292                     	;# 
   755     0292                     	;# 
   756     0293                     	;# 
   757     0293                     	;# 
   758     0294                     	;# 
   759     0295                     	;# 
   760     0296                     	;# 
   761     0296                     	;# 
   762     0297                     	;# 
   763     0298                     	;# 
   764     0298                     	;# 
   765     0299                     	;# 
   766     0299                     	;# 
   767     029A                     	;# 
   768     029B                     	;# 
   769     029C                     	;# 
   770     029C                     	;# 
   771     029D                     	;# 
   772     030C                     	;# 
   773     030C                     	;# 
   774     030D                     	;# 
   775     030E                     	;# 
   776     030F                     	;# 
   777     0310                     	;# 
   778     0310                     	;# 
   779     0311                     	;# 
   780     0312                     	;# 
   781     0313                     	;# 
   782     0314                     	;# 
   783     0314                     	;# 
   784     0315                     	;# 
   785     0316                     	;# 
   786     0317                     	;# 
   787     0318                     	;# 
   788     0318                     	;# 
   789     0319                     	;# 
   790     031A                     	;# 
   791     031B                     	;# 
   792     031C                     	;# 
   793     031C                     	;# 
   794     031D                     	;# 
   795     031E                     	;# 
   796     031F                     	;# 
   797     038C                     	;# 
   798     038C                     	;# 
   799     038D                     	;# 
   800     038E                     	;# 
   801     0390                     	;# 
   802     0390                     	;# 
   803     0391                     	;# 
   804     0392                     	;# 
   805     040C                     	;# 
   806     040D                     	;# 
   807     040E                     	;# 
   808     040F                     	;# 
   809     0410                     	;# 
   810     0411                     	;# 
   811     0416                     	;# 
   812     0416                     	;# 
   813     0417                     	;# 
   814     0418                     	;# 
   815     0418                     	;# 
   816     0419                     	;# 
   817     041A                     	;# 
   818     041A                     	;# 
   819     041B                     	;# 
   820     041C                     	;# 
   821     041C                     	;# 
   822     041D                     	;# 
   823     041E                     	;# 
   824     041F                     	;# 
   825     048C                     	;# 
   826     048C                     	;# 
   827     048D                     	;# 
   828     048E                     	;# 
   829     048F                     	;# 
   830     048F                     	;# 
   831     0490                     	;# 
   832     0491                     	;# 
   833     0492                     	;# 
   834     0492                     	;# 
   835     0493                     	;# 
   836     0494                     	;# 
   837     0495                     	;# 
   838     0495                     	;# 
   839     0496                     	;# 
   840     0497                     	;# 
   841     0498                     	;# 
   842     0499                     	;# 
   843     049A                     	;# 
   844     049B                     	;# 
   845     049C                     	;# 
   846     049D                     	;# 
   847     050C                     	;# 
   848     050C                     	;# 
   849     050D                     	;# 
   850     050E                     	;# 
   851     050F                     	;# 
   852     050F                     	;# 
   853     0510                     	;# 
   854     0511                     	;# 
   855     0512                     	;# 
   856     0512                     	;# 
   857     0513                     	;# 
   858     0514                     	;# 
   859     0515                     	;# 
   860     0515                     	;# 
   861     0516                     	;# 
   862     0517                     	;# 
   863     0518                     	;# 
   864     0519                     	;# 
   865     051A                     	;# 
   866     051B                     	;# 
   867     051C                     	;# 
   868     051D                     	;# 
   869     058C                     	;# 
   870     058C                     	;# 
   871     058D                     	;# 
   872     058E                     	;# 
   873     058F                     	;# 
   874     058F                     	;# 
   875     0590                     	;# 
   876     0591                     	;# 
   877     0592                     	;# 
   878     0593                     	;# 
   879     060C                     	;# 
   880     060D                     	;# 
   881     060E                     	;# 
   882     060F                     	;# 
   883     0610                     	;# 
   884     0611                     	;# 
   885     0612                     	;# 
   886     0613                     	;# 
   887     0614                     	;# 
   888     0616                     	;# 
   889     0617                     	;# 
   890     0618                     	;# 
   891     0619                     	;# 
   892     061A                     	;# 
   893     061B                     	;# 
   894     061C                     	;# 
   895     061D                     	;# 
   896     061E                     	;# 
   897     068C                     	;# 
   898     068D                     	;# 
   899     068E                     	;# 
   900     068F                     	;# 
   901     0690                     	;# 
   902     0691                     	;# 
   903     0692                     	;# 
   904     0693                     	;# 
   905     0694                     	;# 
   906     070C                     	;# 
   907     070D                     	;# 
   908     070E                     	;# 
   909     070F                     	;# 
   910     0710                     	;# 
   911     0711                     	;# 
   912     0712                     	;# 
   913     0713                     	;# 
   914     0714                     	;# 
   915     0716                     	;# 
   916     0717                     	;# 
   917     0718                     	;# 
   918     0719                     	;# 
   919     071A                     	;# 
   920     071B                     	;# 
   921     071C                     	;# 
   922     071D                     	;# 
   923     071E                     	;# 
   924     0796                     	;# 
   925     0797                     	;# 
   926     0798                     	;# 
   927     0799                     	;# 
   928     079A                     	;# 
   929     079B                     	;# 
   930     080C                     	;# 
   931     080D                     	;# 
   932     080E                     	;# 
   933     080F                     	;# 
   934     0810                     	;# 
   935     0811                     	;# 
   936     0812                     	;# 
   937     0813                     	;# 
   938     0814                     	;# 
   939     081A                     	;# 
   940     081B                     	;# 
   941     081C                     	;# 
   942     081D                     	;# 
   943     081E                     	;# 
   944     081F                     	;# 
   945     088C                     	;# 
   946     088D                     	;# 
   947     088E                     	;# 
   948     088F                     	;# 
   949     0890                     	;# 
   950     0891                     	;# 
   951     0892                     	;# 
   952     0893                     	;# 
   953     0895                     	;# 
   954     0896                     	;# 
   955     0897                     	;# 
   956     0898                     	;# 
   957     0899                     	;# 
   958     089A                     	;# 
   959     089B                     	;# 
   960     090C                     	;# 
   961     090E                     	;# 
   962     090F                     	;# 
   963     091F                     	;# 
   964     098F                     	;# 
   965     098F                     	;# 
   966     0990                     	;# 
   967     0991                     	;# 
   968     0992                     	;# 
   969     0993                     	;# 
   970     0994                     	;# 
   971     0995                     	;# 
   972     0996                     	;# 
   973     0997                     	;# 
   974     1E0F                     	;# 
   975     1E10                     	;# 
   976     1E11                     	;# 
   977     1E12                     	;# 
   978     1E13                     	;# 
   979     1E14                     	;# 
   980     1E15                     	;# 
   981     1E16                     	;# 
   982     1E17                     	;# 
   983     1E18                     	;# 
   984     1E19                     	;# 
   985     1E1A                     	;# 
   986     1E1B                     	;# 
   987     1E1C                     	;# 
   988     1E1D                     	;# 
   989     1E1E                     	;# 
   990     1E1F                     	;# 
   991     1E20                     	;# 
   992     1E21                     	;# 
   993     1E22                     	;# 
   994     1E23                     	;# 
   995     1E24                     	;# 
   996     1E25                     	;# 
   997     1E26                     	;# 
   998     1E27                     	;# 
   999     1E28                     	;# 
  1000     1E29                     	;# 
  1001     1E2A                     	;# 
  1002     1E2B                     	;# 
  1003     1E2C                     	;# 
  1004     1E2D                     	;# 
  1005     1E2E                     	;# 
  1006     1E2F                     	;# 
  1007     1E30                     	;# 
  1008     1E31                     	;# 
  1009     1E32                     	;# 
  1010     1E33                     	;# 
  1011     1E34                     	;# 
  1012     1E35                     	;# 
  1013     1E36                     	;# 
  1014     1E37                     	;# 
  1015     1E8F                     	;# 
  1016     1E90                     	;# 
  1017     1E91                     	;# 
  1018     1E92                     	;# 
  1019     1E93                     	;# 
  1020     1E94                     	;# 
  1021     1E95                     	;# 
  1022     1E96                     	;# 
  1023     1E97                     	;# 
  1024     1E9C                     	;# 
  1025     1E9D                     	;# 
  1026     1E9E                     	;# 
  1027     1EA1                     	;# 
  1028     1EA2                     	;# 
  1029     1EA3                     	;# 
  1030     1EA4                     	;# 
  1031     1EA5                     	;# 
  1032     1EA9                     	;# 
  1033     1EAA                     	;# 
  1034     1EAB                     	;# 
  1035     1EAC                     	;# 
  1036     1EB1                     	;# 
  1037     1EB2                     	;# 
  1038     1EB3                     	;# 
  1039     1EB8                     	;# 
  1040     1EB9                     	;# 
  1041     1EBA                     	;# 
  1042     1EBB                     	;# 
  1043     1EBC                     	;# 
  1044     1EBD                     	;# 
  1045     1EBE                     	;# 
  1046     1EC3                     	;# 
  1047     1EC5                     	;# 
  1048     1EC6                     	;# 
  1049     1EC7                     	;# 
  1050     1EC8                     	;# 
  1051     1EC9                     	;# 
  1052     1ECA                     	;# 
  1053     1ECB                     	;# 
  1054     1ECC                     	;# 
  1055     1F10                     	;# 
  1056     1F11                     	;# 
  1057     1F12                     	;# 
  1058     1F13                     	;# 
  1059     1F14                     	;# 
  1060     1F15                     	;# 
  1061     1F16                     	;# 
  1062     1F17                     	;# 
  1063     1F18                     	;# 
  1064     1F19                     	;# 
  1065     1F1A                     	;# 
  1066     1F1B                     	;# 
  1067     1F1C                     	;# 
  1068     1F1D                     	;# 
  1069     1F1E                     	;# 
  1070     1F1F                     	;# 
  1071     1F20                     	;# 
  1072     1F21                     	;# 
  1073     1F22                     	;# 
  1074     1F23                     	;# 
  1075     1F24                     	;# 
  1076     1F25                     	;# 
  1077     1F26                     	;# 
  1078     1F27                     	;# 
  1079     1F28                     	;# 
  1080     1F29                     	;# 
  1081     1F2A                     	;# 
  1082     1F2B                     	;# 
  1083     1F2C                     	;# 
  1084     1F2D                     	;# 
  1085     1F2E                     	;# 
  1086     1F2F                     	;# 
  1087     1F30                     	;# 
  1088     1F31                     	;# 
  1089     1F32                     	;# 
  1090     1F38                     	;# 
  1091     1F39                     	;# 
  1092     1F3A                     	;# 
  1093     1F3B                     	;# 
  1094     1F3C                     	;# 
  1095     1F3D                     	;# 
  1096     1F3E                     	;# 
  1097     1F3F                     	;# 
  1098     1F40                     	;# 
  1099     1F41                     	;# 
  1100     1F43                     	;# 
  1101     1F44                     	;# 
  1102     1F45                     	;# 
  1103     1F46                     	;# 
  1104     1F47                     	;# 
  1105     1F48                     	;# 
  1106     1F49                     	;# 
  1107     1F4A                     	;# 
  1108     1F4B                     	;# 
  1109     1F4C                     	;# 
  1110     1F4E                     	;# 
  1111     1F4F                     	;# 
  1112     1F50                     	;# 
  1113     1F51                     	;# 
  1114     1F52                     	;# 
  1115     1F53                     	;# 
  1116     1F54                     	;# 
  1117     1F55                     	;# 
  1118     1F56                     	;# 
  1119     1F57                     	;# 
  1120     1F59                     	;# 
  1121     1F5A                     	;# 
  1122     1F5B                     	;# 
  1123     1F5C                     	;# 
  1124     1F5D                     	;# 
  1125     1F61                     	;# 
  1126     1F62                     	;# 
  1127     1F64                     	;# 
  1128     1F65                     	;# 
  1129     1F66                     	;# 
  1130     1F67                     	;# 
  1131     1F68                     	;# 
  1132     1F69                     	;# 
  1133     1F6A                     	;# 
  1134     1F6B                     	;# 
  1135     1F6C                     	;# 
  1136     1F6D                     	;# 
  1137     1FE4                     	;# 
  1138     1FE5                     	;# 
  1139     1FE6                     	;# 
  1140     1FE7                     	;# 
  1141     1FE8                     	;# 
  1142     1FE9                     	;# 
  1143     1FEA                     	;# 
  1144     1FEB                     	;# 
  1145     1FED                     	;# 
  1146     1FEE                     	;# 
  1147     1FEF                     	;# 
  1148     0000                     	;# 
  1149     0001                     	;# 
  1150     0002                     	;# 
  1151     0003                     	;# 
  1152     0004                     	;# 
  1153     0005                     	;# 
  1154     0006                     	;# 
  1155     0007                     	;# 
  1156     0008                     	;# 
  1157     0009                     	;# 
  1158     000A                     	;# 
  1159     000B                     	;# 
  1160     000C                     	;# 
  1161     000D                     	;# 
  1162     000E                     	;# 
  1163     000F                     	;# 
  1164     0010                     	;# 
  1165     0011                     	;# 
  1166     0012                     	;# 
  1167     0013                     	;# 
  1168     0014                     	;# 
  1169     0015                     	;# 
  1170     0016                     	;# 
  1171     0017                     	;# 
  1172     0018                     	;# 
  1173     0019                     	;# 
  1174     001A                     	;# 
  1175     001C                     	;# 
  1176     001C                     	;# 
  1177     001D                     	;# 
  1178     001D                     	;# 
  1179     001E                     	;# 
  1180     001F                     	;# 
  1181     008C                     	;# 
  1182     008C                     	;# 
  1183     008D                     	;# 
  1184     008E                     	;# 
  1185     008E                     	;# 
  1186     008F                     	;# 
  1187     0090                     	;# 
  1188     0090                     	;# 
  1189     0091                     	;# 
  1190     0093                     	;# 
  1191     0094                     	;# 
  1192     0095                     	;# 
  1193     0096                     	;# 
  1194     0097                     	;# 
  1195     0098                     	;# 
  1196     0099                     	;# 
  1197     009A                     	;# 
  1198     009B                     	;# 
  1199     009C                     	;# 
  1200     009D                     	;# 
  1201     009E                     	;# 
  1202     010C                     	;# 
  1203     010D                     	;# 
  1204     010E                     	;# 
  1205     010E                     	;# 
  1206     010F                     	;# 
  1207     0110                     	;# 
  1208     0110                     	;# 
  1209     0111                     	;# 
  1210     0112                     	;# 
  1211     0112                     	;# 
  1212     0113                     	;# 
  1213     0114                     	;# 
  1214     0114                     	;# 
  1215     0115                     	;# 
  1216     0116                     	;# 
  1217     0116                     	;# 
  1218     0117                     	;# 
  1219     0119                     	;# 
  1220     0119                     	;# 
  1221     0119                     	;# 
  1222     011A                     	;# 
  1223     011A                     	;# 
  1224     011A                     	;# 
  1225     011B                     	;# 
  1226     011B                     	;# 
  1227     011B                     	;# 
  1228     011B                     	;# 
  1229     011B                     	;# 
  1230     011C                     	;# 
  1231     011C                     	;# 
  1232     011C                     	;# 
  1233     011D                     	;# 
  1234     011D                     	;# 
  1235     011D                     	;# 
  1236     011E                     	;# 
  1237     011E                     	;# 
  1238     011E                     	;# 
  1239     011F                     	;# 
  1240     011F                     	;# 
  1241     011F                     	;# 
  1242     011F                     	;# 
  1243     011F                     	;# 
  1244     018C                     	;# 
  1245     018D                     	;# 
  1246     018E                     	;# 
  1247     018F                     	;# 
  1248     0190                     	;# 
  1249     0191                     	;# 
  1250     0192                     	;# 
  1251     0196                     	;# 
  1252     0197                     	;# 
  1253     0198                     	;# 
  1254     0199                     	;# 
  1255     019A                     	;# 
  1256     019B                     	;# 
  1257     019C                     	;# 
  1258     020C                     	;# 
  1259     020C                     	;# 
  1260     020D                     	;# 
  1261     020E                     	;# 
  1262     020F                     	;# 
  1263     020F                     	;# 
  1264     0210                     	;# 
  1265     0210                     	;# 
  1266     0211                     	;# 
  1267     0211                     	;# 
  1268     0212                     	;# 
  1269     0212                     	;# 
  1270     0213                     	;# 
  1271     0214                     	;# 
  1272     0215                     	;# 
  1273     0215                     	;# 
  1274     0216                     	;# 
  1275     0216                     	;# 
  1276     0217                     	;# 
  1277     0217                     	;# 
  1278     0218                     	;# 
  1279     0218                     	;# 
  1280     0219                     	;# 
  1281     021A                     	;# 
  1282     021B                     	;# 
  1283     021B                     	;# 
  1284     021C                     	;# 
  1285     021C                     	;# 
  1286     021D                     	;# 
  1287     021D                     	;# 
  1288     021E                     	;# 
  1289     021F                     	;# 
  1290     028C                     	;# 
  1291     028C                     	;# 
  1292     028D                     	;# 
  1293     028D                     	;# 
  1294     028E                     	;# 
  1295     028F                     	;# 
  1296     0290                     	;# 
  1297     0290                     	;# 
  1298     0291                     	;# 
  1299     0292                     	;# 
  1300     0292                     	;# 
  1301     0293                     	;# 
  1302     0293                     	;# 
  1303     0294                     	;# 
  1304     0295                     	;# 
  1305     0296                     	;# 
  1306     0296                     	;# 
  1307     0297                     	;# 
  1308     0298                     	;# 
  1309     0298                     	;# 
  1310     0299                     	;# 
  1311     0299                     	;# 
  1312     029A                     	;# 
  1313     029B                     	;# 
  1314     029C                     	;# 
  1315     029C                     	;# 
  1316     029D                     	;# 
  1317     030C                     	;# 
  1318     030C                     	;# 
  1319     030D                     	;# 
  1320     030E                     	;# 
  1321     030F                     	;# 
  1322     0310                     	;# 
  1323     0310                     	;# 
  1324     0311                     	;# 
  1325     0312                     	;# 
  1326     0313                     	;# 
  1327     0314                     	;# 
  1328     0314                     	;# 
  1329     0315                     	;# 
  1330     0316                     	;# 
  1331     0317                     	;# 
  1332     0318                     	;# 
  1333     0318                     	;# 
  1334     0319                     	;# 
  1335     031A                     	;# 
  1336     031B                     	;# 
  1337     031C                     	;# 
  1338     031C                     	;# 
  1339     031D                     	;# 
  1340     031E                     	;# 
  1341     031F                     	;# 
  1342     038C                     	;# 
  1343     038C                     	;# 
  1344     038D                     	;# 
  1345     038E                     	;# 
  1346     0390                     	;# 
  1347     0390                     	;# 
  1348     0391                     	;# 
  1349     0392                     	;# 
  1350     040C                     	;# 
  1351     040D                     	;# 
  1352     040E                     	;# 
  1353     040F                     	;# 
  1354     0410                     	;# 
  1355     0411                     	;# 
  1356     0416                     	;# 
  1357     0416                     	;# 
  1358     0417                     	;# 
  1359     0418                     	;# 
  1360     0418                     	;# 
  1361     0419                     	;# 
  1362     041A                     	;# 
  1363     041A                     	;# 
  1364     041B                     	;# 
  1365     041C                     	;# 
  1366     041C                     	;# 
  1367     041D                     	;# 
  1368     041E                     	;# 
  1369     041F                     	;# 
  1370     048C                     	;# 
  1371     048C                     	;# 
  1372     048D                     	;# 
  1373     048E                     	;# 
  1374     048F                     	;# 
  1375     048F                     	;# 
  1376     0490                     	;# 
  1377     0491                     	;# 
  1378     0492                     	;# 
  1379     0492                     	;# 
  1380     0493                     	;# 
  1381     0494                     	;# 
  1382     0495                     	;# 
  1383     0495                     	;# 
  1384     0496                     	;# 
  1385     0497                     	;# 
  1386     0498                     	;# 
  1387     0499                     	;# 
  1388     049A                     	;# 
  1389     049B                     	;# 
  1390     049C                     	;# 
  1391     049D                     	;# 
  1392     050C                     	;# 
  1393     050C                     	;# 
  1394     050D                     	;# 
  1395     050E                     	;# 
  1396     050F                     	;# 
  1397     050F                     	;# 
  1398     0510                     	;# 
  1399     0511                     	;# 
  1400     0512                     	;# 
  1401     0512                     	;# 
  1402     0513                     	;# 
  1403     0514                     	;# 
  1404     0515                     	;# 
  1405     0515                     	;# 
  1406     0516                     	;# 
  1407     0517                     	;# 
  1408     0518                     	;# 
  1409     0519                     	;# 
  1410     051A                     	;# 
  1411     051B                     	;# 
  1412     051C                     	;# 
  1413     051D                     	;# 
  1414     058C                     	;# 
  1415     058C                     	;# 
  1416     058D                     	;# 
  1417     058E                     	;# 
  1418     058F                     	;# 
  1419     058F                     	;# 
  1420     0590                     	;# 
  1421     0591                     	;# 
  1422     0592                     	;# 
  1423     0593                     	;# 
  1424     060C                     	;# 
  1425     060D                     	;# 
  1426     060E                     	;# 
  1427     060F                     	;# 
  1428     0610                     	;# 
  1429     0611                     	;# 
  1430     0612                     	;# 
  1431     0613                     	;# 
  1432     0614                     	;# 
  1433     0616                     	;# 
  1434     0617                     	;# 
  1435     0618                     	;# 
  1436     0619                     	;# 
  1437     061A                     	;# 
  1438     061B                     	;# 
  1439     061C                     	;# 
  1440     061D                     	;# 
  1441     061E                     	;# 
  1442     068C                     	;# 
  1443     068D                     	;# 
  1444     068E                     	;# 
  1445     068F                     	;# 
  1446     0690                     	;# 
  1447     0691                     	;# 
  1448     0692                     	;# 
  1449     0693                     	;# 
  1450     0694                     	;# 
  1451     070C                     	;# 
  1452     070D                     	;# 
  1453     070E                     	;# 
  1454     070F                     	;# 
  1455     0710                     	;# 
  1456     0711                     	;# 
  1457     0712                     	;# 
  1458     0713                     	;# 
  1459     0714                     	;# 
  1460     0716                     	;# 
  1461     0717                     	;# 
  1462     0718                     	;# 
  1463     0719                     	;# 
  1464     071A                     	;# 
  1465     071B                     	;# 
  1466     071C                     	;# 
  1467     071D                     	;# 
  1468     071E                     	;# 
  1469     0796                     	;# 
  1470     0797                     	;# 
  1471     0798                     	;# 
  1472     0799                     	;# 
  1473     079A                     	;# 
  1474     079B                     	;# 
  1475     080C                     	;# 
  1476     080D                     	;# 
  1477     080E                     	;# 
  1478     080F                     	;# 
  1479     0810                     	;# 
  1480     0811                     	;# 
  1481     0812                     	;# 
  1482     0813                     	;# 
  1483     0814                     	;# 
  1484     081A                     	;# 
  1485     081B                     	;# 
  1486     081C                     	;# 
  1487     081D                     	;# 
  1488     081E                     	;# 
  1489     081F                     	;# 
  1490     088C                     	;# 
  1491     088D                     	;# 
  1492     088E                     	;# 
  1493     088F                     	;# 
  1494     0890                     	;# 
  1495     0891                     	;# 
  1496     0892                     	;# 
  1497     0893                     	;# 
  1498     0895                     	;# 
  1499     0896                     	;# 
  1500     0897                     	;# 
  1501     0898                     	;# 
  1502     0899                     	;# 
  1503     089A                     	;# 
  1504     089B                     	;# 
  1505     090C                     	;# 
  1506     090E                     	;# 
  1507     090F                     	;# 
  1508     091F                     	;# 
  1509     098F                     	;# 
  1510     098F                     	;# 
  1511     0990                     	;# 
  1512     0991                     	;# 
  1513     0992                     	;# 
  1514     0993                     	;# 
  1515     0994                     	;# 
  1516     0995                     	;# 
  1517     0996                     	;# 
  1518     0997                     	;# 
  1519     1E0F                     	;# 
  1520     1E10                     	;# 
  1521     1E11                     	;# 
  1522     1E12                     	;# 
  1523     1E13                     	;# 
  1524     1E14                     	;# 
  1525     1E15                     	;# 
  1526     1E16                     	;# 
  1527     1E17                     	;# 
  1528     1E18                     	;# 
  1529     1E19                     	;# 
  1530     1E1A                     	;# 
  1531     1E1B                     	;# 
  1532     1E1C                     	;# 
  1533     1E1D                     	;# 
  1534     1E1E                     	;# 
  1535     1E1F                     	;# 
  1536     1E20                     	;# 
  1537     1E21                     	;# 
  1538     1E22                     	;# 
  1539     1E23                     	;# 
  1540     1E24                     	;# 
  1541     1E25                     	;# 
  1542     1E26                     	;# 
  1543     1E27                     	;# 
  1544     1E28                     	;# 
  1545     1E29                     	;# 
  1546     1E2A                     	;# 
  1547     1E2B                     	;# 
  1548     1E2C                     	;# 
  1549     1E2D                     	;# 
  1550     1E2E                     	;# 
  1551     1E2F                     	;# 
  1552     1E30                     	;# 
  1553     1E31                     	;# 
  1554     1E32                     	;# 
  1555     1E33                     	;# 
  1556     1E34                     	;# 
  1557     1E35                     	;# 
  1558     1E36                     	;# 
  1559     1E37                     	;# 
  1560     1E8F                     	;# 
  1561     1E90                     	;# 
  1562     1E91                     	;# 
  1563     1E92                     	;# 
  1564     1E93                     	;# 
  1565     1E94                     	;# 
  1566     1E95                     	;# 
  1567     1E96                     	;# 
  1568     1E97                     	;# 
  1569     1E9C                     	;# 
  1570     1E9D                     	;# 
  1571     1E9E                     	;# 
  1572     1EA1                     	;# 
  1573     1EA2                     	;# 
  1574     1EA3                     	;# 
  1575     1EA4                     	;# 
  1576     1EA5                     	;# 
  1577     1EA9                     	;# 
  1578     1EAA                     	;# 
  1579     1EAB                     	;# 
  1580     1EAC                     	;# 
  1581     1EB1                     	;# 
  1582     1EB2                     	;# 
  1583     1EB3                     	;# 
  1584     1EB8                     	;# 
  1585     1EB9                     	;# 
  1586     1EBA                     	;# 
  1587     1EBB                     	;# 
  1588     1EBC                     	;# 
  1589     1EBD                     	;# 
  1590     1EBE                     	;# 
  1591     1EC3                     	;# 
  1592     1EC5                     	;# 
  1593     1EC6                     	;# 
  1594     1EC7                     	;# 
  1595     1EC8                     	;# 
  1596     1EC9                     	;# 
  1597     1ECA                     	;# 
  1598     1ECB                     	;# 
  1599     1ECC                     	;# 
  1600     1F10                     	;# 
  1601     1F11                     	;# 
  1602     1F12                     	;# 
  1603     1F13                     	;# 
  1604     1F14                     	;# 
  1605     1F15                     	;# 
  1606     1F16                     	;# 
  1607     1F17                     	;# 
  1608     1F18                     	;# 
  1609     1F19                     	;# 
  1610     1F1A                     	;# 
  1611     1F1B                     	;# 
  1612     1F1C                     	;# 
  1613     1F1D                     	;# 
  1614     1F1E                     	;# 
  1615     1F1F                     	;# 
  1616     1F20                     	;# 
  1617     1F21                     	;# 
  1618     1F22                     	;# 
  1619     1F23                     	;# 
  1620     1F24                     	;# 
  1621     1F25                     	;# 
  1622     1F26                     	;# 
  1623     1F27                     	;# 
  1624     1F28                     	;# 
  1625     1F29                     	;# 
  1626     1F2A                     	;# 
  1627     1F2B                     	;# 
  1628     1F2C                     	;# 
  1629     1F2D                     	;# 
  1630     1F2E                     	;# 
  1631     1F2F                     	;# 
  1632     1F30                     	;# 
  1633     1F31                     	;# 
  1634     1F32                     	;# 
  1635     1F38                     	;# 
  1636     1F39                     	;# 
  1637     1F3A                     	;# 
  1638     1F3B                     	;# 
  1639     1F3C                     	;# 
  1640     1F3D                     	;# 
  1641     1F3E                     	;# 
  1642     1F3F                     	;# 
  1643     1F40                     	;# 
  1644     1F41                     	;# 
  1645     1F43                     	;# 
  1646     1F44                     	;# 
  1647     1F45                     	;# 
  1648     1F46                     	;# 
  1649     1F47                     	;# 
  1650     1F48                     	;# 
  1651     1F49                     	;# 
  1652     1F4A                     	;# 
  1653     1F4B                     	;# 
  1654     1F4C                     	;# 
  1655     1F4E                     	;# 
  1656     1F4F                     	;# 
  1657     1F50                     	;# 
  1658     1F51                     	;# 
  1659     1F52                     	;# 
  1660     1F53                     	;# 
  1661     1F54                     	;# 
  1662     1F55                     	;# 
  1663     1F56                     	;# 
  1664     1F57                     	;# 
  1665     1F59                     	;# 
  1666     1F5A                     	;# 
  1667     1F5B                     	;# 
  1668     1F5C                     	;# 
  1669     1F5D                     	;# 
  1670     1F61                     	;# 
  1671     1F62                     	;# 
  1672     1F64                     	;# 
  1673     1F65                     	;# 
  1674     1F66                     	;# 
  1675     1F67                     	;# 
  1676     1F68                     	;# 
  1677     1F69                     	;# 
  1678     1F6A                     	;# 
  1679     1F6B                     	;# 
  1680     1F6C                     	;# 
  1681     1F6D                     	;# 
  1682     1FE4                     	;# 
  1683     1FE5                     	;# 
  1684     1FE6                     	;# 
  1685     1FE7                     	;# 
  1686     1FE8                     	;# 
  1687     1FE9                     	;# 
  1688     1FEA                     	;# 
  1689     1FEB                     	;# 
  1690     1FED                     	;# 
  1691     1FEE                     	;# 
  1692     1FEF                     	;# 
  1693     0000                     	;# 
  1694     0001                     	;# 
  1695     0002                     	;# 
  1696     0003                     	;# 
  1697     0004                     	;# 
  1698     0005                     	;# 
  1699     0006                     	;# 
  1700     0007                     	;# 
  1701     0008                     	;# 
  1702     0009                     	;# 
  1703     000A                     	;# 
  1704     000B                     	;# 
  1705     000C                     	;# 
  1706     000D                     	;# 
  1707     000E                     	;# 
  1708     000F                     	;# 
  1709     0010                     	;# 
  1710     0011                     	;# 
  1711     0012                     	;# 
  1712     0013                     	;# 
  1713     0014                     	;# 
  1714     0015                     	;# 
  1715     0016                     	;# 
  1716     0017                     	;# 
  1717     0018                     	;# 
  1718     0019                     	;# 
  1719     001A                     	;# 
  1720     001C                     	;# 
  1721     001C                     	;# 
  1722     001D                     	;# 
  1723     001D                     	;# 
  1724     001E                     	;# 
  1725     001F                     	;# 
  1726     008C                     	;# 
  1727     008C                     	;# 
  1728     008D                     	;# 
  1729     008E                     	;# 
  1730     008E                     	;# 
  1731     008F                     	;# 
  1732     0090                     	;# 
  1733     0090                     	;# 
  1734     0091                     	;# 
  1735     0093                     	;# 
  1736     0094                     	;# 
  1737     0095                     	;# 
  1738     0096                     	;# 
  1739     0097                     	;# 
  1740     0098                     	;# 
  1741     0099                     	;# 
  1742     009A                     	;# 
  1743     009B                     	;# 
  1744     009C                     	;# 
  1745     009D                     	;# 
  1746     009E                     	;# 
  1747     010C                     	;# 
  1748     010D                     	;# 
  1749     010E                     	;# 
  1750     010E                     	;# 
  1751     010F                     	;# 
  1752     0110                     	;# 
  1753     0110                     	;# 
  1754     0111                     	;# 
  1755     0112                     	;# 
  1756     0112                     	;# 
  1757     0113                     	;# 
  1758     0114                     	;# 
  1759     0114                     	;# 
  1760     0115                     	;# 
  1761     0116                     	;# 
  1762     0116                     	;# 
  1763     0117                     	;# 
  1764     0119                     	;# 
  1765     0119                     	;# 
  1766     0119                     	;# 
  1767     011A                     	;# 
  1768     011A                     	;# 
  1769     011A                     	;# 
  1770     011B                     	;# 
  1771     011B                     	;# 
  1772     011B                     	;# 
  1773     011B                     	;# 
  1774     011B                     	;# 
  1775     011C                     	;# 
  1776     011C                     	;# 
  1777     011C                     	;# 
  1778     011D                     	;# 
  1779     011D                     	;# 
  1780     011D                     	;# 
  1781     011E                     	;# 
  1782     011E                     	;# 
  1783     011E                     	;# 
  1784     011F                     	;# 
  1785     011F                     	;# 
  1786     011F                     	;# 
  1787     011F                     	;# 
  1788     011F                     	;# 
  1789     018C                     	;# 
  1790     018D                     	;# 
  1791     018E                     	;# 
  1792     018F                     	;# 
  1793     0190                     	;# 
  1794     0191                     	;# 
  1795     0192                     	;# 
  1796     0196                     	;# 
  1797     0197                     	;# 
  1798     0198                     	;# 
  1799     0199                     	;# 
  1800     019A                     	;# 
  1801     019B                     	;# 
  1802     019C                     	;# 
  1803     020C                     	;# 
  1804     020C                     	;# 
  1805     020D                     	;# 
  1806     020E                     	;# 
  1807     020F                     	;# 
  1808     020F                     	;# 
  1809     0210                     	;# 
  1810     0210                     	;# 
  1811     0211                     	;# 
  1812     0211                     	;# 
  1813     0212                     	;# 
  1814     0212                     	;# 
  1815     0213                     	;# 
  1816     0214                     	;# 
  1817     0215                     	;# 
  1818     0215                     	;# 
  1819     0216                     	;# 
  1820     0216                     	;# 
  1821     0217                     	;# 
  1822     0217                     	;# 
  1823     0218                     	;# 
  1824     0218                     	;# 
  1825     0219                     	;# 
  1826     021A                     	;# 
  1827     021B                     	;# 
  1828     021B                     	;# 
  1829     021C                     	;# 
  1830     021C                     	;# 
  1831     021D                     	;# 
  1832     021D                     	;# 
  1833     021E                     	;# 
  1834     021F                     	;# 
  1835     028C                     	;# 
  1836     028C                     	;# 
  1837     028D                     	;# 
  1838     028D                     	;# 
  1839     028E                     	;# 
  1840     028F                     	;# 
  1841     0290                     	;# 
  1842     0290                     	;# 
  1843     0291                     	;# 
  1844     0292                     	;# 
  1845     0292                     	;# 
  1846     0293                     	;# 
  1847     0293                     	;# 
  1848     0294                     	;# 
  1849     0295                     	;# 
  1850     0296                     	;# 
  1851     0296                     	;# 
  1852     0297                     	;# 
  1853     0298                     	;# 
  1854     0298                     	;# 
  1855     0299                     	;# 
  1856     0299                     	;# 
  1857     029A                     	;# 
  1858     029B                     	;# 
  1859     029C                     	;# 
  1860     029C                     	;# 
  1861     029D                     	;# 
  1862     030C                     	;# 
  1863     030C                     	;# 
  1864     030D                     	;# 
  1865     030E                     	;# 
  1866     030F                     	;# 
  1867     0310                     	;# 
  1868     0310                     	;# 
  1869     0311                     	;# 
  1870     0312                     	;# 
  1871     0313                     	;# 
  1872     0314                     	;# 
  1873     0314                     	;# 
  1874     0315                     	;# 
  1875     0316                     	;# 
  1876     0317                     	;# 
  1877     0318                     	;# 
  1878     0318                     	;# 
  1879     0319                     	;# 
  1880     031A                     	;# 
  1881     031B                     	;# 
  1882     031C                     	;# 
  1883     031C                     	;# 
  1884     031D                     	;# 
  1885     031E                     	;# 
  1886     031F                     	;# 
  1887     038C                     	;# 
  1888     038C                     	;# 
  1889     038D                     	;# 
  1890     038E                     	;# 
  1891     0390                     	;# 
  1892     0390                     	;# 
  1893     0391                     	;# 
  1894     0392                     	;# 
  1895     040C                     	;# 
  1896     040D                     	;# 
  1897     040E                     	;# 
  1898     040F                     	;# 
  1899     0410                     	;# 
  1900     0411                     	;# 
  1901     0416                     	;# 
  1902     0416                     	;# 
  1903     0417                     	;# 
  1904     0418                     	;# 
  1905     0418                     	;# 
  1906     0419                     	;# 
  1907     041A                     	;# 
  1908     041A                     	;# 
  1909     041B                     	;# 
  1910     041C                     	;# 
  1911     041C                     	;# 
  1912     041D                     	;# 
  1913     041E                     	;# 
  1914     041F                     	;# 
  1915     048C                     	;# 
  1916     048C                     	;# 
  1917     048D                     	;# 
  1918     048E                     	;# 
  1919     048F                     	;# 
  1920     048F                     	;# 
  1921     0490                     	;# 
  1922     0491                     	;# 
  1923     0492                     	;# 
  1924     0492                     	;# 
  1925     0493                     	;# 
  1926     0494                     	;# 
  1927     0495                     	;# 
  1928     0495                     	;# 
  1929     0496                     	;# 
  1930     0497                     	;# 
  1931     0498                     	;# 
  1932     0499                     	;# 
  1933     049A                     	;# 
  1934     049B                     	;# 
  1935     049C                     	;# 
  1936     049D                     	;# 
  1937     050C                     	;# 
  1938     050C                     	;# 
  1939     050D                     	;# 
  1940     050E                     	;# 
  1941     050F                     	;# 
  1942     050F                     	;# 
  1943     0510                     	;# 
  1944     0511                     	;# 
  1945     0512                     	;# 
  1946     0512                     	;# 
  1947     0513                     	;# 
  1948     0514                     	;# 
  1949     0515                     	;# 
  1950     0515                     	;# 
  1951     0516                     	;# 
  1952     0517                     	;# 
  1953     0518                     	;# 
  1954     0519                     	;# 
  1955     051A                     	;# 
  1956     051B                     	;# 
  1957     051C                     	;# 
  1958     051D                     	;# 
  1959     058C                     	;# 
  1960     058C                     	;# 
  1961     058D                     	;# 
  1962     058E                     	;# 
  1963     058F                     	;# 
  1964     058F                     	;# 
  1965     0590                     	;# 
  1966     0591                     	;# 
  1967     0592                     	;# 
  1968     0593                     	;# 
  1969     060C                     	;# 
  1970     060D                     	;# 
  1971     060E                     	;# 
  1972     060F                     	;# 
  1973     0610                     	;# 
  1974     0611                     	;# 
  1975     0612                     	;# 
  1976     0613                     	;# 
  1977     0614                     	;# 
  1978     0616                     	;# 
  1979     0617                     	;# 
  1980     0618                     	;# 
  1981     0619                     	;# 
  1982     061A                     	;# 
  1983     061B                     	;# 
  1984     061C                     	;# 
  1985     061D                     	;# 
  1986     061E                     	;# 
  1987     068C                     	;# 
  1988     068D                     	;# 
  1989     068E                     	;# 
  1990     068F                     	;# 
  1991     0690                     	;# 
  1992     0691                     	;# 
  1993     0692                     	;# 
  1994     0693                     	;# 
  1995     0694                     	;# 
  1996     070C                     	;# 
  1997     070D                     	;# 
  1998     070E                     	;# 
  1999     070F                     	;# 
  2000     0710                     	;# 
  2001     0711                     	;# 
  2002     0712                     	;# 
  2003     0713                     	;# 
  2004     0714                     	;# 
  2005     0716                     	;# 
  2006     0717                     	;# 
  2007     0718                     	;# 
  2008     0719                     	;# 
  2009     071A                     	;# 
  2010     071B                     	;# 
  2011     071C                     	;# 
  2012     071D                     	;# 
  2013     071E                     	;# 
  2014     0796                     	;# 
  2015     0797                     	;# 
  2016     0798                     	;# 
  2017     0799                     	;# 
  2018     079A                     	;# 
  2019     079B                     	;# 
  2020     080C                     	;# 
  2021     080D                     	;# 
  2022     080E                     	;# 
  2023     080F                     	;# 
  2024     0810                     	;# 
  2025     0811                     	;# 
  2026     0812                     	;# 
  2027     0813                     	;# 
  2028     0814                     	;# 
  2029     081A                     	;# 
  2030     081B                     	;# 
  2031     081C                     	;# 
  2032     081D                     	;# 
  2033     081E                     	;# 
  2034     081F                     	;# 
  2035     088C                     	;# 
  2036     088D                     	;# 
  2037     088E                     	;# 
  2038     088F                     	;# 
  2039     0890                     	;# 
  2040     0891                     	;# 
  2041     0892                     	;# 
  2042     0893                     	;# 
  2043     0895                     	;# 
  2044     0896                     	;# 
  2045     0897                     	;# 
  2046     0898                     	;# 
  2047     0899                     	;# 
  2048     089A                     	;# 
  2049     089B                     	;# 
  2050     090C                     	;# 
  2051     090E                     	;# 
  2052     090F                     	;# 
  2053     091F                     	;# 
  2054     098F                     	;# 
  2055     098F                     	;# 
  2056     0990                     	;# 
  2057     0991                     	;# 
  2058     0992                     	;# 
  2059     0993                     	;# 
  2060     0994                     	;# 
  2061     0995                     	;# 
  2062     0996                     	;# 
  2063     0997                     	;# 
  2064     1E0F                     	;# 
  2065     1E10                     	;# 
  2066     1E11                     	;# 
  2067     1E12                     	;# 
  2068     1E13                     	;# 
  2069     1E14                     	;# 
  2070     1E15                     	;# 
  2071     1E16                     	;# 
  2072     1E17                     	;# 
  2073     1E18                     	;# 
  2074     1E19                     	;# 
  2075     1E1A                     	;# 
  2076     1E1B                     	;# 
  2077     1E1C                     	;# 
  2078     1E1D                     	;# 
  2079     1E1E                     	;# 
  2080     1E1F                     	;# 
  2081     1E20                     	;# 
  2082     1E21                     	;# 
  2083     1E22                     	;# 
  2084     1E23                     	;# 
  2085     1E24                     	;# 
  2086     1E25                     	;# 
  2087     1E26                     	;# 
  2088     1E27                     	;# 
  2089     1E28                     	;# 
  2090     1E29                     	;# 
  2091     1E2A                     	;# 
  2092     1E2B                     	;# 
  2093     1E2C                     	;# 
  2094     1E2D                     	;# 
  2095     1E2E                     	;# 
  2096     1E2F                     	;# 
  2097     1E30                     	;# 
  2098     1E31                     	;# 
  2099     1E32                     	;# 
  2100     1E33                     	;# 
  2101     1E34                     	;# 
  2102     1E35                     	;# 
  2103     1E36                     	;# 
  2104     1E37                     	;# 
  2105     1E8F                     	;# 
  2106     1E90                     	;# 
  2107     1E91                     	;# 
  2108     1E92                     	;# 
  2109     1E93                     	;# 
  2110     1E94                     	;# 
  2111     1E95                     	;# 
  2112     1E96                     	;# 
  2113     1E97                     	;# 
  2114     1E9C                     	;# 
  2115     1E9D                     	;# 
  2116     1E9E                     	;# 
  2117     1EA1                     	;# 
  2118     1EA2                     	;# 
  2119     1EA3                     	;# 
  2120     1EA4                     	;# 
  2121     1EA5                     	;# 
  2122     1EA9                     	;# 
  2123     1EAA                     	;# 
  2124     1EAB                     	;# 
  2125     1EAC                     	;# 
  2126     1EB1                     	;# 
  2127     1EB2                     	;# 
  2128     1EB3                     	;# 
  2129     1EB8                     	;# 
  2130     1EB9                     	;# 
  2131     1EBA                     	;# 
  2132     1EBB                     	;# 
  2133     1EBC                     	;# 
  2134     1EBD                     	;# 
  2135     1EBE                     	;# 
  2136     1EC3                     	;# 
  2137     1EC5                     	;# 
  2138     1EC6                     	;# 
  2139     1EC7                     	;# 
  2140     1EC8                     	;# 
  2141     1EC9                     	;# 
  2142     1ECA                     	;# 
  2143     1ECB                     	;# 
  2144     1ECC                     	;# 
  2145     1F10                     	;# 
  2146     1F11                     	;# 
  2147     1F12                     	;# 
  2148     1F13                     	;# 
  2149     1F14                     	;# 
  2150     1F15                     	;# 
  2151     1F16                     	;# 
  2152     1F17                     	;# 
  2153     1F18                     	;# 
  2154     1F19                     	;# 
  2155     1F1A                     	;# 
  2156     1F1B                     	;# 
  2157     1F1C                     	;# 
  2158     1F1D                     	;# 
  2159     1F1E                     	;# 
  2160     1F1F                     	;# 
  2161     1F20                     	;# 
  2162     1F21                     	;# 
  2163     1F22                     	;# 
  2164     1F23                     	;# 
  2165     1F24                     	;# 
  2166     1F25                     	;# 
  2167     1F26                     	;# 
  2168     1F27                     	;# 
  2169     1F28                     	;# 
  2170     1F29                     	;# 
  2171     1F2A                     	;# 
  2172     1F2B                     	;# 
  2173     1F2C                     	;# 
  2174     1F2D                     	;# 
  2175     1F2E                     	;# 
  2176     1F2F                     	;# 
  2177     1F30                     	;# 
  2178     1F31                     	;# 
  2179     1F32                     	;# 
  2180     1F38                     	;# 
  2181     1F39                     	;# 
  2182     1F3A                     	;# 
  2183     1F3B                     	;# 
  2184     1F3C                     	;# 
  2185     1F3D                     	;# 
  2186     1F3E                     	;# 
  2187     1F3F                     	;# 
  2188     1F40                     	;# 
  2189     1F41                     	;# 
  2190     1F43                     	;# 
  2191     1F44                     	;# 
  2192     1F45                     	;# 
  2193     1F46                     	;# 
  2194     1F47                     	;# 
  2195     1F48                     	;# 
  2196     1F49                     	;# 
  2197     1F4A                     	;# 
  2198     1F4B                     	;# 
  2199     1F4C                     	;# 
  2200     1F4E                     	;# 
  2201     1F4F                     	;# 
  2202     1F50                     	;# 
  2203     1F51                     	;# 
  2204     1F52                     	;# 
  2205     1F53                     	;# 
  2206     1F54                     	;# 
  2207     1F55                     	;# 
  2208     1F56                     	;# 
  2209     1F57                     	;# 
  2210     1F59                     	;# 
  2211     1F5A                     	;# 
  2212     1F5B                     	;# 
  2213     1F5C                     	;# 
  2214     1F5D                     	;# 
  2215     1F61                     	;# 
  2216     1F62                     	;# 
  2217     1F64                     	;# 
  2218     1F65                     	;# 
  2219     1F66                     	;# 
  2220     1F67                     	;# 
  2221     1F68                     	;# 
  2222     1F69                     	;# 
  2223     1F6A                     	;# 
  2224     1F6B                     	;# 
  2225     1F6C                     	;# 
  2226     1F6D                     	;# 
  2227     1FE4                     	;# 
  2228     1FE5                     	;# 
  2229     1FE6                     	;# 
  2230     1FE7                     	;# 
  2231     1FE8                     	;# 
  2232     1FE9                     	;# 
  2233     1FEA                     	;# 
  2234     1FEB                     	;# 
  2235     1FED                     	;# 
  2236     1FEE                     	;# 
  2237     1FEF                     	;# 
  2238     0000                     	;# 
  2239     0001                     	;# 
  2240     0002                     	;# 
  2241     0003                     	;# 
  2242     0004                     	;# 
  2243     0005                     	;# 
  2244     0006                     	;# 
  2245     0007                     	;# 
  2246     0008                     	;# 
  2247     0009                     	;# 
  2248     000A                     	;# 
  2249     000B                     	;# 
  2250     000C                     	;# 
  2251     000D                     	;# 
  2252     000E                     	;# 
  2253     000F                     	;# 
  2254     0010                     	;# 
  2255     0011                     	;# 
  2256     0012                     	;# 
  2257     0013                     	;# 
  2258     0014                     	;# 
  2259     0015                     	;# 
  2260     0016                     	;# 
  2261     0017                     	;# 
  2262     0018                     	;# 
  2263     0019                     	;# 
  2264     001A                     	;# 
  2265     001C                     	;# 
  2266     001C                     	;# 
  2267     001D                     	;# 
  2268     001D                     	;# 
  2269     001E                     	;# 
  2270     001F                     	;# 
  2271     008C                     	;# 
  2272     008C                     	;# 
  2273     008D                     	;# 
  2274     008E                     	;# 
  2275     008E                     	;# 
  2276     008F                     	;# 
  2277     0090                     	;# 
  2278     0090                     	;# 
  2279     0091                     	;# 
  2280     0093                     	;# 
  2281     0094                     	;# 
  2282     0095                     	;# 
  2283     0096                     	;# 
  2284     0097                     	;# 
  2285     0098                     	;# 
  2286     0099                     	;# 
  2287     009A                     	;# 
  2288     009B                     	;# 
  2289     009C                     	;# 
  2290     009D                     	;# 
  2291     009E                     	;# 
  2292     010C                     	;# 
  2293     010D                     	;# 
  2294     010E                     	;# 
  2295     010E                     	;# 
  2296     010F                     	;# 
  2297     0110                     	;# 
  2298     0110                     	;# 
  2299     0111                     	;# 
  2300     0112                     	;# 
  2301     0112                     	;# 
  2302     0113                     	;# 
  2303     0114                     	;# 
  2304     0114                     	;# 
  2305     0115                     	;# 
  2306     0116                     	;# 
  2307     0116                     	;# 
  2308     0117                     	;# 
  2309     0119                     	;# 
  2310     0119                     	;# 
  2311     0119                     	;# 
  2312     011A                     	;# 
  2313     011A                     	;# 
  2314     011A                     	;# 
  2315     011B                     	;# 
  2316     011B                     	;# 
  2317     011B                     	;# 
  2318     011B                     	;# 
  2319     011B                     	;# 
  2320     011C                     	;# 
  2321     011C                     	;# 
  2322     011C                     	;# 
  2323     011D                     	;# 
  2324     011D                     	;# 
  2325     011D                     	;# 
  2326     011E                     	;# 
  2327     011E                     	;# 
  2328     011E                     	;# 
  2329     011F                     	;# 
  2330     011F                     	;# 
  2331     011F                     	;# 
  2332     011F                     	;# 
  2333     011F                     	;# 
  2334     018C                     	;# 
  2335     018D                     	;# 
  2336     018E                     	;# 
  2337     018F                     	;# 
  2338     0190                     	;# 
  2339     0191                     	;# 
  2340     0192                     	;# 
  2341     0196                     	;# 
  2342     0197                     	;# 
  2343     0198                     	;# 
  2344     0199                     	;# 
  2345     019A                     	;# 
  2346     019B                     	;# 
  2347     019C                     	;# 
  2348     020C                     	;# 
  2349     020C                     	;# 
  2350     020D                     	;# 
  2351     020E                     	;# 
  2352     020F                     	;# 
  2353     020F                     	;# 
  2354     0210                     	;# 
  2355     0210                     	;# 
  2356     0211                     	;# 
  2357     0211                     	;# 
  2358     0212                     	;# 
  2359     0212                     	;# 
  2360     0213                     	;# 
  2361     0214                     	;# 
  2362     0215                     	;# 
  2363     0215                     	;# 
  2364     0216                     	;# 
  2365     0216                     	;# 
  2366     0217                     	;# 
  2367     0217                     	;# 
  2368     0218                     	;# 
  2369     0218                     	;# 
  2370     0219                     	;# 
  2371     021A                     	;# 
  2372     021B                     	;# 
  2373     021B                     	;# 
  2374     021C                     	;# 
  2375     021C                     	;# 
  2376     021D                     	;# 
  2377     021D                     	;# 
  2378     021E                     	;# 
  2379     021F                     	;# 
  2380     028C                     	;# 
  2381     028C                     	;# 
  2382     028D                     	;# 
  2383     028D                     	;# 
  2384     028E                     	;# 
  2385     028F                     	;# 
  2386     0290                     	;# 
  2387     0290                     	;# 
  2388     0291                     	;# 
  2389     0292                     	;# 
  2390     0292                     	;# 
  2391     0293                     	;# 
  2392     0293                     	;# 
  2393     0294                     	;# 
  2394     0295                     	;# 
  2395     0296                     	;# 
  2396     0296                     	;# 
  2397     0297                     	;# 
  2398     0298                     	;# 
  2399     0298                     	;# 
  2400     0299                     	;# 
  2401     0299                     	;# 
  2402     029A                     	;# 
  2403     029B                     	;# 
  2404     029C                     	;# 
  2405     029C                     	;# 
  2406     029D                     	;# 
  2407     030C                     	;# 
  2408     030C                     	;# 
  2409     030D                     	;# 
  2410     030E                     	;# 
  2411     030F                     	;# 
  2412     0310                     	;# 
  2413     0310                     	;# 
  2414     0311                     	;# 
  2415     0312                     	;# 
  2416     0313                     	;# 
  2417     0314                     	;# 
  2418     0314                     	;# 
  2419     0315                     	;# 
  2420     0316                     	;# 
  2421     0317                     	;# 
  2422     0318                     	;# 
  2423     0318                     	;# 
  2424     0319                     	;# 
  2425     031A                     	;# 
  2426     031B                     	;# 
  2427     031C                     	;# 
  2428     031C                     	;# 
  2429     031D                     	;# 
  2430     031E                     	;# 
  2431     031F                     	;# 
  2432     038C                     	;# 
  2433     038C                     	;# 
  2434     038D                     	;# 
  2435     038E                     	;# 
  2436     0390                     	;# 
  2437     0390                     	;# 
  2438     0391                     	;# 
  2439     0392                     	;# 
  2440     040C                     	;# 
  2441     040D                     	;# 
  2442     040E                     	;# 
  2443     040F                     	;# 
  2444     0410                     	;# 
  2445     0411                     	;# 
  2446     0416                     	;# 
  2447     0416                     	;# 
  2448     0417                     	;# 
  2449     0418                     	;# 
  2450     0418                     	;# 
  2451     0419                     	;# 
  2452     041A                     	;# 
  2453     041A                     	;# 
  2454     041B                     	;# 
  2455     041C                     	;# 
  2456     041C                     	;# 
  2457     041D                     	;# 
  2458     041E                     	;# 
  2459     041F                     	;# 
  2460     048C                     	;# 
  2461     048C                     	;# 
  2462     048D                     	;# 
  2463     048E                     	;# 
  2464     048F                     	;# 
  2465     048F                     	;# 
  2466     0490                     	;# 
  2467     0491                     	;# 
  2468     0492                     	;# 
  2469     0492                     	;# 
  2470     0493                     	;# 
  2471     0494                     	;# 
  2472     0495                     	;# 
  2473     0495                     	;# 
  2474     0496                     	;# 
  2475     0497                     	;# 
  2476     0498                     	;# 
  2477     0499                     	;# 
  2478     049A                     	;# 
  2479     049B                     	;# 
  2480     049C                     	;# 
  2481     049D                     	;# 
  2482     050C                     	;# 
  2483     050C                     	;# 
  2484     050D                     	;# 
  2485     050E                     	;# 
  2486     050F                     	;# 
  2487     050F                     	;# 
  2488     0510                     	;# 
  2489     0511                     	;# 
  2490     0512                     	;# 
  2491     0512                     	;# 
  2492     0513                     	;# 
  2493     0514                     	;# 
  2494     0515                     	;# 
  2495     0515                     	;# 
  2496     0516                     	;# 
  2497     0517                     	;# 
  2498     0518                     	;# 
  2499     0519                     	;# 
  2500     051A                     	;# 
  2501     051B                     	;# 
  2502     051C                     	;# 
  2503     051D                     	;# 
  2504     058C                     	;# 
  2505     058C                     	;# 
  2506     058D                     	;# 
  2507     058E                     	;# 
  2508     058F                     	;# 
  2509     058F                     	;# 
  2510     0590                     	;# 
  2511     0591                     	;# 
  2512     0592                     	;# 
  2513     0593                     	;# 
  2514     060C                     	;# 
  2515     060D                     	;# 
  2516     060E                     	;# 
  2517     060F                     	;# 
  2518     0610                     	;# 
  2519     0611                     	;# 
  2520     0612                     	;# 
  2521     0613                     	;# 
  2522     0614                     	;# 
  2523     0616                     	;# 
  2524     0617                     	;# 
  2525     0618                     	;# 
  2526     0619                     	;# 
  2527     061A                     	;# 
  2528     061B                     	;# 
  2529     061C                     	;# 
  2530     061D                     	;# 
  2531     061E                     	;# 
  2532     068C                     	;# 
  2533     068D                     	;# 
  2534     068E                     	;# 
  2535     068F                     	;# 
  2536     0690                     	;# 
  2537     0691                     	;# 
  2538     0692                     	;# 
  2539     0693                     	;# 
  2540     0694                     	;# 
  2541     070C                     	;# 
  2542     070D                     	;# 
  2543     070E                     	;# 
  2544     070F                     	;# 
  2545     0710                     	;# 
  2546     0711                     	;# 
  2547     0712                     	;# 
  2548     0713                     	;# 
  2549     0714                     	;# 
  2550     0716                     	;# 
  2551     0717                     	;# 
  2552     0718                     	;# 
  2553     0719                     	;# 
  2554     071A                     	;# 
  2555     071B                     	;# 
  2556     071C                     	;# 
  2557     071D                     	;# 
  2558     071E                     	;# 
  2559     0796                     	;# 
  2560     0797                     	;# 
  2561     0798                     	;# 
  2562     0799                     	;# 
  2563     079A                     	;# 
  2564     079B                     	;# 
  2565     080C                     	;# 
  2566     080D                     	;# 
  2567     080E                     	;# 
  2568     080F                     	;# 
  2569     0810                     	;# 
  2570     0811                     	;# 
  2571     0812                     	;# 
  2572     0813                     	;# 
  2573     0814                     	;# 
  2574     081A                     	;# 
  2575     081B                     	;# 
  2576     081C                     	;# 
  2577     081D                     	;# 
  2578     081E                     	;# 
  2579     081F                     	;# 
  2580     088C                     	;# 
  2581     088D                     	;# 
  2582     088E                     	;# 
  2583     088F                     	;# 
  2584     0890                     	;# 
  2585     0891                     	;# 
  2586     0892                     	;# 
  2587     0893                     	;# 
  2588     0895                     	;# 
  2589     0896                     	;# 
  2590     0897                     	;# 
  2591     0898                     	;# 
  2592     0899                     	;# 
  2593     089A                     	;# 
  2594     089B                     	;# 
  2595     090C                     	;# 
  2596     090E                     	;# 
  2597     090F                     	;# 
  2598     091F                     	;# 
  2599     098F                     	;# 
  2600     098F                     	;# 
  2601     0990                     	;# 
  2602     0991                     	;# 
  2603     0992                     	;# 
  2604     0993                     	;# 
  2605     0994                     	;# 
  2606     0995                     	;# 
  2607     0996                     	;# 
  2608     0997                     	;# 
  2609     1E0F                     	;# 
  2610     1E10                     	;# 
  2611     1E11                     	;# 
  2612     1E12                     	;# 
  2613     1E13                     	;# 
  2614     1E14                     	;# 
  2615     1E15                     	;# 
  2616     1E16                     	;# 
  2617     1E17                     	;# 
  2618     1E18                     	;# 
  2619     1E19                     	;# 
  2620     1E1A                     	;# 
  2621     1E1B                     	;# 
  2622     1E1C                     	;# 
  2623     1E1D                     	;# 
  2624     1E1E                     	;# 
  2625     1E1F                     	;# 
  2626     1E20                     	;# 
  2627     1E21                     	;# 
  2628     1E22                     	;# 
  2629     1E23                     	;# 
  2630     1E24                     	;# 
  2631     1E25                     	;# 
  2632     1E26                     	;# 
  2633     1E27                     	;# 
  2634     1E28                     	;# 
  2635     1E29                     	;# 
  2636     1E2A                     	;# 
  2637     1E2B                     	;# 
  2638     1E2C                     	;# 
  2639     1E2D                     	;# 
  2640     1E2E                     	;# 
  2641     1E2F                     	;# 
  2642     1E30                     	;# 
  2643     1E31                     	;# 
  2644     1E32                     	;# 
  2645     1E33                     	;# 
  2646     1E34                     	;# 
  2647     1E35                     	;# 
  2648     1E36                     	;# 
  2649     1E37                     	;# 
  2650     1E8F                     	;# 
  2651     1E90                     	;# 
  2652     1E91                     	;# 
  2653     1E92                     	;# 
  2654     1E93                     	;# 
  2655     1E94                     	;# 
  2656     1E95                     	;# 
  2657     1E96                     	;# 
  2658     1E97                     	;# 
  2659     1E9C                     	;# 
  2660     1E9D                     	;# 
  2661     1E9E                     	;# 
  2662     1EA1                     	;# 
  2663     1EA2                     	;# 
  2664     1EA3                     	;# 
  2665     1EA4                     	;# 
  2666     1EA5                     	;# 
  2667     1EA9                     	;# 
  2668     1EAA                     	;# 
  2669     1EAB                     	;# 
  2670     1EAC                     	;# 
  2671     1EB1                     	;# 
  2672     1EB2                     	;# 
  2673     1EB3                     	;# 
  2674     1EB8                     	;# 
  2675     1EB9                     	;# 
  2676     1EBA                     	;# 
  2677     1EBB                     	;# 
  2678     1EBC                     	;# 
  2679     1EBD                     	;# 
  2680     1EBE                     	;# 
  2681     1EC3                     	;# 
  2682     1EC5                     	;# 
  2683     1EC6                     	;# 
  2684     1EC7                     	;# 
  2685     1EC8                     	;# 
  2686     1EC9                     	;# 
  2687     1ECA                     	;# 
  2688     1ECB                     	;# 
  2689     1ECC                     	;# 
  2690     1F10                     	;# 
  2691     1F11                     	;# 
  2692     1F12                     	;# 
  2693     1F13                     	;# 
  2694     1F14                     	;# 
  2695     1F15                     	;# 
  2696     1F16                     	;# 
  2697     1F17                     	;# 
  2698     1F18                     	;# 
  2699     1F19                     	;# 
  2700     1F1A                     	;# 
  2701     1F1B                     	;# 
  2702     1F1C                     	;# 
  2703     1F1D                     	;# 
  2704     1F1E                     	;# 
  2705     1F1F                     	;# 
  2706     1F20                     	;# 
  2707     1F21                     	;# 
  2708     1F22                     	;# 
  2709     1F23                     	;# 
  2710     1F24                     	;# 
  2711     1F25                     	;# 
  2712     1F26                     	;# 
  2713     1F27                     	;# 
  2714     1F28                     	;# 
  2715     1F29                     	;# 
  2716     1F2A                     	;# 
  2717     1F2B                     	;# 
  2718     1F2C                     	;# 
  2719     1F2D                     	;# 
  2720     1F2E                     	;# 
  2721     1F2F                     	;# 
  2722     1F30                     	;# 
  2723     1F31                     	;# 
  2724     1F32                     	;# 
  2725     1F38                     	;# 
  2726     1F39                     	;# 
  2727     1F3A                     	;# 
  2728     1F3B                     	;# 
  2729     1F3C                     	;# 
  2730     1F3D                     	;# 
  2731     1F3E                     	;# 
  2732     1F3F                     	;# 
  2733     1F40                     	;# 
  2734     1F41                     	;# 
  2735     1F43                     	;# 
  2736     1F44                     	;# 
  2737     1F45                     	;# 
  2738     1F46                     	;# 
  2739     1F47                     	;# 
  2740     1F48                     	;# 
  2741     1F49                     	;# 
  2742     1F4A                     	;# 
  2743     1F4B                     	;# 
  2744     1F4C                     	;# 
  2745     1F4E                     	;# 
  2746     1F4F                     	;# 
  2747     1F50                     	;# 
  2748     1F51                     	;# 
  2749     1F52                     	;# 
  2750     1F53                     	;# 
  2751     1F54                     	;# 
  2752     1F55                     	;# 
  2753     1F56                     	;# 
  2754     1F57                     	;# 
  2755     1F59                     	;# 
  2756     1F5A                     	;# 
  2757     1F5B                     	;# 
  2758     1F5C                     	;# 
  2759     1F5D                     	;# 
  2760     1F61                     	;# 
  2761     1F62                     	;# 
  2762     1F64                     	;# 
  2763     1F65                     	;# 
  2764     1F66                     	;# 
  2765     1F67                     	;# 
  2766     1F68                     	;# 
  2767     1F69                     	;# 
  2768     1F6A                     	;# 
  2769     1F6B                     	;# 
  2770     1F6C                     	;# 
  2771     1F6D                     	;# 
  2772     1FE4                     	;# 
  2773     1FE5                     	;# 
  2774     1FE6                     	;# 
  2775     1FE7                     	;# 
  2776     1FE8                     	;# 
  2777     1FE9                     	;# 
  2778     1FEA                     	;# 
  2779     1FEB                     	;# 
  2780     1FED                     	;# 
  2781     1FEE                     	;# 
  2782     1FEF                     	;# 
  2783     0000                     	;# 
  2784     0001                     	;# 
  2785     0002                     	;# 
  2786     0003                     	;# 
  2787     0004                     	;# 
  2788     0005                     	;# 
  2789     0006                     	;# 
  2790     0007                     	;# 
  2791     0008                     	;# 
  2792     0009                     	;# 
  2793     000A                     	;# 
  2794     000B                     	;# 
  2795     000C                     	;# 
  2796     000D                     	;# 
  2797     000E                     	;# 
  2798     000F                     	;# 
  2799     0010                     	;# 
  2800     0011                     	;# 
  2801     0012                     	;# 
  2802     0013                     	;# 
  2803     0014                     	;# 
  2804     0015                     	;# 
  2805     0016                     	;# 
  2806     0017                     	;# 
  2807     0018                     	;# 
  2808     0019                     	;# 
  2809     001A                     	;# 
  2810     001C                     	;# 
  2811     001C                     	;# 
  2812     001D                     	;# 
  2813     001D                     	;# 
  2814     001E                     	;# 
  2815     001F                     	;# 
  2816     008C                     	;# 
  2817     008C                     	;# 
  2818     008D                     	;# 
  2819     008E                     	;# 
  2820     008E                     	;# 
  2821     008F                     	;# 
  2822     0090                     	;# 
  2823     0090                     	;# 
  2824     0091                     	;# 
  2825     0093                     	;# 
  2826     0094                     	;# 
  2827     0095                     	;# 
  2828     0096                     	;# 
  2829     0097                     	;# 
  2830     0098                     	;# 
  2831     0099                     	;# 
  2832     009A                     	;# 
  2833     009B                     	;# 
  2834     009C                     	;# 
  2835     009D                     	;# 
  2836     009E                     	;# 
  2837     010C                     	;# 
  2838     010D                     	;# 
  2839     010E                     	;# 
  2840     010E                     	;# 
  2841     010F                     	;# 
  2842     0110                     	;# 
  2843     0110                     	;# 
  2844     0111                     	;# 
  2845     0112                     	;# 
  2846     0112                     	;# 
  2847     0113                     	;# 
  2848     0114                     	;# 
  2849     0114                     	;# 
  2850     0115                     	;# 
  2851     0116                     	;# 
  2852     0116                     	;# 
  2853     0117                     	;# 
  2854     0119                     	;# 
  2855     0119                     	;# 
  2856     0119                     	;# 
  2857     011A                     	;# 
  2858     011A                     	;# 
  2859     011A                     	;# 
  2860     011B                     	;# 
  2861     011B                     	;# 
  2862     011B                     	;# 
  2863     011B                     	;# 
  2864     011B                     	;# 
  2865     011C                     	;# 
  2866     011C                     	;# 
  2867     011C                     	;# 
  2868     011D                     	;# 
  2869     011D                     	;# 
  2870     011D                     	;# 
  2871     011E                     	;# 
  2872     011E                     	;# 
  2873     011E                     	;# 
  2874     011F                     	;# 
  2875     011F                     	;# 
  2876     011F                     	;# 
  2877     011F                     	;# 
  2878     011F                     	;# 
  2879     018C                     	;# 
  2880     018D                     	;# 
  2881     018E                     	;# 
  2882     018F                     	;# 
  2883     0190                     	;# 
  2884     0191                     	;# 
  2885     0192                     	;# 
  2886     0196                     	;# 
  2887     0197                     	;# 
  2888     0198                     	;# 
  2889     0199                     	;# 
  2890     019A                     	;# 
  2891     019B                     	;# 
  2892     019C                     	;# 
  2893     020C                     	;# 
  2894     020C                     	;# 
  2895     020D                     	;# 
  2896     020E                     	;# 
  2897     020F                     	;# 
  2898     020F                     	;# 
  2899     0210                     	;# 
  2900     0210                     	;# 
  2901     0211                     	;# 
  2902     0211                     	;# 
  2903     0212                     	;# 
  2904     0212                     	;# 
  2905     0213                     	;# 
  2906     0214                     	;# 
  2907     0215                     	;# 
  2908     0215                     	;# 
  2909     0216                     	;# 
  2910     0216                     	;# 
  2911     0217                     	;# 
  2912     0217                     	;# 
  2913     0218                     	;# 
  2914     0218                     	;# 
  2915     0219                     	;# 
  2916     021A                     	;# 
  2917     021B                     	;# 
  2918     021B                     	;# 
  2919     021C                     	;# 
  2920     021C                     	;# 
  2921     021D                     	;# 
  2922     021D                     	;# 
  2923     021E                     	;# 
  2924     021F                     	;# 
  2925     028C                     	;# 
  2926     028C                     	;# 
  2927     028D                     	;# 
  2928     028D                     	;# 
  2929     028E                     	;# 
  2930     028F                     	;# 
  2931     0290                     	;# 
  2932     0290                     	;# 
  2933     0291                     	;# 
  2934     0292                     	;# 
  2935     0292                     	;# 
  2936     0293                     	;# 
  2937     0293                     	;# 
  2938     0294                     	;# 
  2939     0295                     	;# 
  2940     0296                     	;# 
  2941     0296                     	;# 
  2942     0297                     	;# 
  2943     0298                     	;# 
  2944     0298                     	;# 
  2945     0299                     	;# 
  2946     0299                     	;# 
  2947     029A                     	;# 
  2948     029B                     	;# 
  2949     029C                     	;# 
  2950     029C                     	;# 
  2951     029D                     	;# 
  2952     030C                     	;# 
  2953     030C                     	;# 
  2954     030D                     	;# 
  2955     030E                     	;# 
  2956     030F                     	;# 
  2957     0310                     	;# 
  2958     0310                     	;# 
  2959     0311                     	;# 
  2960     0312                     	;# 
  2961     0313                     	;# 
  2962     0314                     	;# 
  2963     0314                     	;# 
  2964     0315                     	;# 
  2965     0316                     	;# 
  2966     0317                     	;# 
  2967     0318                     	;# 
  2968     0318                     	;# 
  2969     0319                     	;# 
  2970     031A                     	;# 
  2971     031B                     	;# 
  2972     031C                     	;# 
  2973     031C                     	;# 
  2974     031D                     	;# 
  2975     031E                     	;# 
  2976     031F                     	;# 
  2977     038C                     	;# 
  2978     038C                     	;# 
  2979     038D                     	;# 
  2980     038E                     	;# 
  2981     0390                     	;# 
  2982     0390                     	;# 
  2983     0391                     	;# 
  2984     0392                     	;# 
  2985     040C                     	;# 
  2986     040D                     	;# 
  2987     040E                     	;# 
  2988     040F                     	;# 
  2989     0410                     	;# 
  2990     0411                     	;# 
  2991     0416                     	;# 
  2992     0416                     	;# 
  2993     0417                     	;# 
  2994     0418                     	;# 
  2995     0418                     	;# 
  2996     0419                     	;# 
  2997     041A                     	;# 
  2998     041A                     	;# 
  2999     041B                     	;# 
  3000     041C                     	;# 
  3001     041C                     	;# 
  3002     041D                     	;# 
  3003     041E                     	;# 
  3004     041F                     	;# 
  3005     048C                     	;# 
  3006     048C                     	;# 
  3007     048D                     	;# 
  3008     048E                     	;# 
  3009     048F                     	;# 
  3010     048F                     	;# 
  3011     0490                     	;# 
  3012     0491                     	;# 
  3013     0492                     	;# 
  3014     0492                     	;# 
  3015     0493                     	;# 
  3016     0494                     	;# 
  3017     0495                     	;# 
  3018     0495                     	;# 
  3019     0496                     	;# 
  3020     0497                     	;# 
  3021     0498                     	;# 
  3022     0499                     	;# 
  3023     049A                     	;# 
  3024     049B                     	;# 
  3025     049C                     	;# 
  3026     049D                     	;# 
  3027     050C                     	;# 
  3028     050C                     	;# 
  3029     050D                     	;# 
  3030     050E                     	;# 
  3031     050F                     	;# 
  3032     050F                     	;# 
  3033     0510                     	;# 
  3034     0511                     	;# 
  3035     0512                     	;# 
  3036     0512                     	;# 
  3037     0513                     	;# 
  3038     0514                     	;# 
  3039     0515                     	;# 
  3040     0515                     	;# 
  3041     0516                     	;# 
  3042     0517                     	;# 
  3043     0518                     	;# 
  3044     0519                     	;# 
  3045     051A                     	;# 
  3046     051B                     	;# 
  3047     051C                     	;# 
  3048     051D                     	;# 
  3049     058C                     	;# 
  3050     058C                     	;# 
  3051     058D                     	;# 
  3052     058E                     	;# 
  3053     058F                     	;# 
  3054     058F                     	;# 
  3055     0590                     	;# 
  3056     0591                     	;# 
  3057     0592                     	;# 
  3058     0593                     	;# 
  3059     060C                     	;# 
  3060     060D                     	;# 
  3061     060E                     	;# 
  3062     060F                     	;# 
  3063     0610                     	;# 
  3064     0611                     	;# 
  3065     0612                     	;# 
  3066     0613                     	;# 
  3067     0614                     	;# 
  3068     0616                     	;# 
  3069     0617                     	;# 
  3070     0618                     	;# 
  3071     0619                     	;# 
  3072     061A                     	;# 
  3073     061B                     	;# 
  3074     061C                     	;# 
  3075     061D                     	;# 
  3076     061E                     	;# 
  3077     068C                     	;# 
  3078     068D                     	;# 
  3079     068E                     	;# 
  3080     068F                     	;# 
  3081     0690                     	;# 
  3082     0691                     	;# 
  3083     0692                     	;# 
  3084     0693                     	;# 
  3085     0694                     	;# 
  3086     070C                     	;# 
  3087     070D                     	;# 
  3088     070E                     	;# 
  3089     070F                     	;# 
  3090     0710                     	;# 
  3091     0711                     	;# 
  3092     0712                     	;# 
  3093     0713                     	;# 
  3094     0714                     	;# 
  3095     0716                     	;# 
  3096     0717                     	;# 
  3097     0718                     	;# 
  3098     0719                     	;# 
  3099     071A                     	;# 
  3100     071B                     	;# 
  3101     071C                     	;# 
  3102     071D                     	;# 
  3103     071E                     	;# 
  3104     0796                     	;# 
  3105     0797                     	;# 
  3106     0798                     	;# 
  3107     0799                     	;# 
  3108     079A                     	;# 
  3109     079B                     	;# 
  3110     080C                     	;# 
  3111     080D                     	;# 
  3112     080E                     	;# 
  3113     080F                     	;# 
  3114     0810                     	;# 
  3115     0811                     	;# 
  3116     0812                     	;# 
  3117     0813                     	;# 
  3118     0814                     	;# 
  3119     081A                     	;# 
  3120     081B                     	;# 
  3121     081C                     	;# 
  3122     081D                     	;# 
  3123     081E                     	;# 
  3124     081F                     	;# 
  3125     088C                     	;# 
  3126     088D                     	;# 
  3127     088E                     	;# 
  3128     088F                     	;# 
  3129     0890                     	;# 
  3130     0891                     	;# 
  3131     0892                     	;# 
  3132     0893                     	;# 
  3133     0895                     	;# 
  3134     0896                     	;# 
  3135     0897                     	;# 
  3136     0898                     	;# 
  3137     0899                     	;# 
  3138     089A                     	;# 
  3139     089B                     	;# 
  3140     090C                     	;# 
  3141     090E                     	;# 
  3142     090F                     	;# 
  3143     091F                     	;# 
  3144     098F                     	;# 
  3145     098F                     	;# 
  3146     0990                     	;# 
  3147     0991                     	;# 
  3148     0992                     	;# 
  3149     0993                     	;# 
  3150     0994                     	;# 
  3151     0995                     	;# 
  3152     0996                     	;# 
  3153     0997                     	;# 
  3154     1E0F                     	;# 
  3155     1E10                     	;# 
  3156     1E11                     	;# 
  3157     1E12                     	;# 
  3158     1E13                     	;# 
  3159     1E14                     	;# 
  3160     1E15                     	;# 
  3161     1E16                     	;# 
  3162     1E17                     	;# 
  3163     1E18                     	;# 
  3164     1E19                     	;# 
  3165     1E1A                     	;# 
  3166     1E1B                     	;# 
  3167     1E1C                     	;# 
  3168     1E1D                     	;# 
  3169     1E1E                     	;# 
  3170     1E1F                     	;# 
  3171     1E20                     	;# 
  3172     1E21                     	;# 
  3173     1E22                     	;# 
  3174     1E23                     	;# 
  3175     1E24                     	;# 
  3176     1E25                     	;# 
  3177     1E26                     	;# 
  3178     1E27                     	;# 
  3179     1E28                     	;# 
  3180     1E29                     	;# 
  3181     1E2A                     	;# 
  3182     1E2B                     	;# 
  3183     1E2C                     	;# 
  3184     1E2D                     	;# 
  3185     1E2E                     	;# 
  3186     1E2F                     	;# 
  3187     1E30                     	;# 
  3188     1E31                     	;# 
  3189     1E32                     	;# 
  3190     1E33                     	;# 
  3191     1E34                     	;# 
  3192     1E35                     	;# 
  3193     1E36                     	;# 
  3194     1E37                     	;# 
  3195     1E8F                     	;# 
  3196     1E90                     	;# 
  3197     1E91                     	;# 
  3198     1E92                     	;# 
  3199     1E93                     	;# 
  3200     1E94                     	;# 
  3201     1E95                     	;# 
  3202     1E96                     	;# 
  3203     1E97                     	;# 
  3204     1E9C                     	;# 
  3205     1E9D                     	;# 
  3206     1E9E                     	;# 
  3207     1EA1                     	;# 
  3208     1EA2                     	;# 
  3209     1EA3                     	;# 
  3210     1EA4                     	;# 
  3211     1EA5                     	;# 
  3212     1EA9                     	;# 
  3213     1EAA                     	;# 
  3214     1EAB                     	;# 
  3215     1EAC                     	;# 
  3216     1EB1                     	;# 
  3217     1EB2                     	;# 
  3218     1EB3                     	;# 
  3219     1EB8                     	;# 
  3220     1EB9                     	;# 
  3221     1EBA                     	;# 
  3222     1EBB                     	;# 
  3223     1EBC                     	;# 
  3224     1EBD                     	;# 
  3225     1EBE                     	;# 
  3226     1EC3                     	;# 
  3227     1EC5                     	;# 
  3228     1EC6                     	;# 
  3229     1EC7                     	;# 
  3230     1EC8                     	;# 
  3231     1EC9                     	;# 
  3232     1ECA                     	;# 
  3233     1ECB                     	;# 
  3234     1ECC                     	;# 
  3235     1F10                     	;# 
  3236     1F11                     	;# 
  3237     1F12                     	;# 
  3238     1F13                     	;# 
  3239     1F14                     	;# 
  3240     1F15                     	;# 
  3241     1F16                     	;# 
  3242     1F17                     	;# 
  3243     1F18                     	;# 
  3244     1F19                     	;# 
  3245     1F1A                     	;# 
  3246     1F1B                     	;# 
  3247     1F1C                     	;# 
  3248     1F1D                     	;# 
  3249     1F1E                     	;# 
  3250     1F1F                     	;# 
  3251     1F20                     	;# 
  3252     1F21                     	;# 
  3253     1F22                     	;# 
  3254     1F23                     	;# 
  3255     1F24                     	;# 
  3256     1F25                     	;# 
  3257     1F26                     	;# 
  3258     1F27                     	;# 
  3259     1F28                     	;# 
  3260     1F29                     	;# 
  3261     1F2A                     	;# 
  3262     1F2B                     	;# 
  3263     1F2C                     	;# 
  3264     1F2D                     	;# 
  3265     1F2E                     	;# 
  3266     1F2F                     	;# 
  3267     1F30                     	;# 
  3268     1F31                     	;# 
  3269     1F32                     	;# 
  3270     1F38                     	;# 
  3271     1F39                     	;# 
  3272     1F3A                     	;# 
  3273     1F3B                     	;# 
  3274     1F3C                     	;# 
  3275     1F3D                     	;# 
  3276     1F3E                     	;# 
  3277     1F3F                     	;# 
  3278     1F40                     	;# 
  3279     1F41                     	;# 
  3280     1F43                     	;# 
  3281     1F44                     	;# 
  3282     1F45                     	;# 
  3283     1F46                     	;# 
  3284     1F47                     	;# 
  3285     1F48                     	;# 
  3286     1F49                     	;# 
  3287     1F4A                     	;# 
  3288     1F4B                     	;# 
  3289     1F4C                     	;# 
  3290     1F4E                     	;# 
  3291     1F4F                     	;# 
  3292     1F50                     	;# 
  3293     1F51                     	;# 
  3294     1F52                     	;# 
  3295     1F53                     	;# 
  3296     1F54                     	;# 
  3297     1F55                     	;# 
  3298     1F56                     	;# 
  3299     1F57                     	;# 
  3300     1F59                     	;# 
  3301     1F5A                     	;# 
  3302     1F5B                     	;# 
  3303     1F5C                     	;# 
  3304     1F5D                     	;# 
  3305     1F61                     	;# 
  3306     1F62                     	;# 
  3307     1F64                     	;# 
  3308     1F65                     	;# 
  3309     1F66                     	;# 
  3310     1F67                     	;# 
  3311     1F68                     	;# 
  3312     1F69                     	;# 
  3313     1F6A                     	;# 
  3314     1F6B                     	;# 
  3315     1F6C                     	;# 
  3316     1F6D                     	;# 
  3317     1FE4                     	;# 
  3318     1FE5                     	;# 
  3319     1FE6                     	;# 
  3320     1FE7                     	;# 
  3321     1FE8                     	;# 
  3322     1FE9                     	;# 
  3323     1FEA                     	;# 
  3324     1FEB                     	;# 
  3325     1FED                     	;# 
  3326     1FEE                     	;# 
  3327     1FEF                     	;# 
  3328                           
  3329                           	psect	nvBANK0
  3330     0020                     __pnvBANK0:
  3331     0020                     _delay_time:
  3332     0020                     	ds	8
  3333     001F                     _T0CON1	set	31
  3334     001E                     _T0CON0	set	30
  3335     001C                     _TMR0L	set	28
  3336     0016                     _LATA	set	22
  3337     000B                     _INTCONbits	set	11
  3338     0011                     _TRISA	set	17
  3339     0012                     _TRISB	set	18
  3340     0017                     _LATB	set	23
  3341     008C                     _ADRESL	set	140
  3342     008D                     _ADRESH	set	141
  3343     0093                     _ADCON0bits	set	147
  3344     009E                     _ADPCH	set	158
  3345     0093                     _ADCON0	set	147
  3346     0716                     _PIE0bits	set	1814
  3347     070C                     _PIR0bits	set	1804
  3348     1F38                     _ANSELA	set	7992
  3349                           
  3350                           	psect	stringtext1
  3351     01D8                     __pstringtext1:
  3352     01D8                     STR_1:
  3353     01D8  3448               	retlw	72	;'H'
  3354     01D9  3465               	retlw	101	;'e'
  3355     01DA  346C               	retlw	108	;'l'
  3356     01DB  346C               	retlw	108	;'l'
  3357     01DC  346F               	retlw	111	;'o'
  3358     01DD  342C               	retlw	44	;','
  3359     01DE  3420               	retlw	32	;' '
  3360     01DF  3457               	retlw	87	;'W'
  3361     01E0  346F               	retlw	111	;'o'
  3362     01E1  3472               	retlw	114	;'r'
  3363     01E2  346C               	retlw	108	;'l'
  3364     01E3  3464               	retlw	100	;'d'
  3365     01E4  3421               	retlw	33	;'!'
  3366     01E5  3400               	retlw	0
  3367                           
  3368                           	psect	stringtext2
  3369     0000                     __pstringtext2:
  3370                           
  3371                           	psect	cinit
  3372     002C                     start_initialization:	
  3373                           ; #config settings
  3374                           
  3375     002C                     __initialization:
  3376     002C                     end_of_initialization:	
  3377                           ;End of C runtime variable initialization code
  3378                           
  3379     002C                     __end_of__initialization:
  3380     002C  107E               	bcf	int$flags,0	;clear compiler interrupt flag (level 1)
  3381     002D  0140               	movlb	0
  3382     002E  3180  2893         	ljmp	_main	;jump to C main() function
  3383                           
  3384                           	psect	cstackCOMMON
  3385     0070                     __pcstackCOMMON:
  3386     0070                     ?_delay:
  3387     0070                     ?_delay_init:	
  3388                           ; 1 bytes @ 0x0
  3389                           
  3390     0070                     ??_delay_init:	
  3391                           ; 1 bytes @ 0x0
  3392                           
  3393     0070                     ?_lcd_cmd:	
  3394                           ; 1 bytes @ 0x0
  3395                           
  3396     0070                     ?_lcd_init:	
  3397                           ; 1 bytes @ 0x0
  3398                           
  3399     0070                     ?_lcd_char:	
  3400                           ; 1 bytes @ 0x0
  3401                           
  3402     0070                     ?_main:	
  3403                           ; 1 bytes @ 0x0
  3404                           
  3405     0070                     ?_isr:	
  3406                           ; 1 bytes @ 0x0
  3407                           
  3408     0070                     ??_isr:	
  3409                           ; 1 bytes @ 0x0
  3410                           
  3411     0070                     delay@t:	
  3412                           ; 1 bytes @ 0x0
  3413                           
  3414                           
  3415                           ; 8 bytes @ 0x0
  3416     0070                     	ds	8
  3417     0078                     delay@f:
  3418                           
  3419                           ; 2 bytes @ 0x8
  3420     0078                     	ds	2
  3421     007A                     ??_delay:
  3422     007A                     ??_lcd_cmd:	
  3423                           ; 1 bytes @ 0xA
  3424                           
  3425     007A                     ??_lcd_char:	
  3426                           ; 1 bytes @ 0xA
  3427                           
  3428                           
  3429                           ; 1 bytes @ 0xA
  3430     007A                     	ds	1
  3431     007B                     lcd_cmd@cmd:
  3432     007B                     lcd_char@c:	
  3433                           ; 1 bytes @ 0xB
  3434                           
  3435                           
  3436                           ; 1 bytes @ 0xB
  3437     007B                     	ds	1
  3438     007C                     ??_lcd_init:
  3439     007C                     ?_lcd_display_message:	
  3440                           ; 1 bytes @ 0xC
  3441                           
  3442     007C                     ?_lcd_display_cursor:	
  3443                           ; 1 bytes @ 0xC
  3444                           
  3445     007C                     lcd_display_cursor@position:	
  3446                           ; 1 bytes @ 0xC
  3447                           
  3448     007C                     lcd_display_message@mess:	
  3449                           ; 1 bytes @ 0xC
  3450                           
  3451                           
  3452                           ; 2 bytes @ 0xC
  3453     007C                     	ds	1
  3454     007D                     ??_lcd_display_cursor:
  3455     007D                     lcd_display_cursor@line:	
  3456                           ; 1 bytes @ 0xD
  3457                           
  3458                           
  3459                           ; 1 bytes @ 0xD
  3460     007D                     	ds	1
  3461     007E                     ??_main:
  3462                           
  3463                           	psect	cstackBANK0
  3464     0028                     __pcstackBANK0:	
  3465                           ; 1 bytes @ 0xE
  3466                           
  3467     0028                     ??_lcd_display_message:
  3468                           
  3469                           ; 1 bytes @ 0x0
  3470     0028                     	ds	1
  3471     0029                     lcd_display_message@i:
  3472                           
  3473                           ; 2 bytes @ 0x1
  3474     0029                     	ds	2
  3475                           
  3476                           	psect	maintext
  3477     0093                     __pmaintext:	
  3478 ;;
  3479 ;;Main: autosize = 0, tempsize = 0, incstack = 0, save=0
  3480 ;;
  3481 ;; *************** function _main *****************
  3482 ;; Defined at:
  3483 ;;		line 57 in file "main.c"
  3484 ;; Parameters:    Size  Location     Type
  3485 ;;		None
  3486 ;; Auto vars:     Size  Location     Type
  3487 ;;		None
  3488 ;; Return value:  Size  Location     Type
  3489 ;;                  1    wreg      void 
  3490 ;; Registers used:
  3491 ;;		wreg, fsr0l, fsr0h, status,2, status,0, pclath, cstack
  3492 ;; Tracked objects:
  3493 ;;		On entry : B3F/0
  3494 ;;		On exit  : 0/0
  3495 ;;		Unchanged: 0/0
  3496 ;; Data sizes:     COMMON   BANK0   BANK1   BANK2   BANK3   BANK4   BANK5   BANK6   BANK7   BANK8   BANK9  BANK10  BANK1
      +1  BANK12  BANK13  BANK14  BANK15  BANK16  BANK17  BANK18  BANK19  BANK20  BANK21  BANK22  BANK23  BANK24  BANK25  BANK2
      +6  BANK27  BANK28  BANK29  BANK30  BANK31  BANK32  BANK33  BANK34  BANK35  BANK36  BANK37  BANK38  BANK39  BANK40  BANK4
      +1  BANK42  BANK43  BANK44  BANK45  BANK46  BANK47  BANK48  BANK49  BANK50
  3497 ;;      Params:         0       0       0       0       0       0       0       0       0       0       0       0       
      +0       0       0       0       0       0       0       0       0       0       0       0       0       0       0       
      +0       0       0       0       0       0       0       0       0       0       0       0       0       0       0       
      +0       0       0       0       0       0       0       0       0       0
  3498 ;;      Locals:         0       0       0       0       0       0       0       0       0       0       0       0       
      +0       0       0       0       0       0       0       0       0       0       0       0       0       0       0       
      +0       0       0       0       0       0       0       0       0       0       0       0       0       0       0       
      +0       0       0       0       0       0       0       0       0       0
  3499 ;;      Temps:          0       0       0       0       0       0       0       0       0       0       0       0       
      +0       0       0       0       0       0       0       0       0       0       0       0       0       0       0       
      +0       0       0       0       0       0       0       0       0       0       0       0       0       0       0       
      +0       0       0       0       0       0       0       0       0       0
  3500 ;;      Totals:         0       0       0       0       0       0       0       0       0       0       0       0       
      +0       0       0       0       0       0       0       0       0       0       0       0       0       0       0       
      +0       0       0       0       0       0       0       0       0       0       0       0       0       0       0       
      +0       0       0       0       0       0       0       0       0       0
  3501 ;;Total ram usage:        0 bytes
  3502 ;; Hardware stack levels required when called: 4
  3503 ;; This function calls:
  3504 ;;		_delay
  3505 ;;		_delay_init
  3506 ;;		_lcd_display_cursor
  3507 ;;		_lcd_display_message
  3508 ;;		_lcd_init
  3509 ;; This function is called by:
  3510 ;;		Startup code after reset
  3511 ;; This function uses a non-reentrant model
  3512 ;;
  3513                           
  3514     0093                     _main:	
  3515                           ;psect for function _main
  3516                           
  3517     0093                     l945:	
  3518                           ;incstack = 0
  3519                           ; Regs used in _main: [wreg-fsr0h+status,2+status,0+pclath+cstack]
  3520                           
  3521                           
  3522                           ;main.c: 58:     TRISB = 0x00;
  3523     0093  0140               	movlb	0	; select bank0
  3524     0094  0192               	clrf	18	;volatile
  3525                           
  3526                           ;main.c: 59:     TRISA = 0x00;
  3527     0095  0191               	clrf	17	;volatile
  3528     0096                     l947:
  3529                           
  3530                           ;main.c: 60:     INTCONbits.GIE = 1;
  3531     0096  178B               	bsf	11,7	;volatile
  3532     0097                     l949:
  3533                           
  3534                           ;main.c: 61:     delay_init();
  3535     0097  3181  21E6  3180   	fcall	_delay_init
  3536     009A                     l951:
  3537                           
  3538                           ;main.c: 62:     lcd_init();
  3539     009A  3180  2030  3180   	fcall	_lcd_init
  3540     009D                     l953:
  3541                           
  3542                           ;main.c: 65:         LATA = 0xff;
  3543     009D  30FF               	movlw	255
  3544     009E  0140               	movlb	0	; select bank0
  3545     009F  0096               	movwf	22	;volatile
  3546     00A0                     l955:
  3547                           
  3548                           ;main.c: 66:         delay(1000, ((void*)0));
  3549     00A0  3000               	movlw	0
  3550     00A1  00F7               	movwf	delay@t+7
  3551     00A2  3000               	movlw	0
  3552     00A3  00F6               	movwf	delay@t+6
  3553     00A4  3000               	movlw	0
  3554     00A5  00F5               	movwf	delay@t+5
  3555     00A6  3000               	movlw	0
  3556     00A7  00F4               	movwf	delay@t+4
  3557     00A8  3000               	movlw	0
  3558     00A9  00F3               	movwf	delay@t+3
  3559     00AA  3000               	movlw	0
  3560     00AB  00F2               	movwf	delay@t+2
  3561     00AC  3003               	movlw	3
  3562     00AD  00F1               	movwf	delay@t+1
  3563     00AE  30E8               	movlw	232
  3564     00AF  00F0               	movwf	delay@t
  3565     00B0  3000               	movlw	0
  3566     00B1  00F8               	movwf	delay@f
  3567     00B2  00F9               	movwf	delay@f+1
  3568     00B3  3181  2196  3180   	fcall	_delay
  3569     00B6                     l957:
  3570                           
  3571                           ;main.c: 67:         LATA = 0;
  3572     00B6  0140               	movlb	0	; select bank0
  3573     00B7  0196               	clrf	22	;volatile
  3574     00B8                     l959:
  3575                           
  3576                           ;main.c: 68:         delay(1000, ((void*)0));
  3577     00B8  3000               	movlw	0
  3578     00B9  00F7               	movwf	delay@t+7
  3579     00BA  3000               	movlw	0
  3580     00BB  00F6               	movwf	delay@t+6
  3581     00BC  3000               	movlw	0
  3582     00BD  00F5               	movwf	delay@t+5
  3583     00BE  3000               	movlw	0
  3584     00BF  00F4               	movwf	delay@t+4
  3585     00C0  3000               	movlw	0
  3586     00C1  00F3               	movwf	delay@t+3
  3587     00C2  3000               	movlw	0
  3588     00C3  00F2               	movwf	delay@t+2
  3589     00C4  3003               	movlw	3
  3590     00C5  00F1               	movwf	delay@t+1
  3591     00C6  30E8               	movlw	232
  3592     00C7  00F0               	movwf	delay@t
  3593     00C8  3000               	movlw	0
  3594     00C9  00F8               	movwf	delay@f
  3595     00CA  00F9               	movwf	delay@f+1
  3596     00CB  3181  2196  3180   	fcall	_delay
  3597     00CE                     l961:
  3598                           
  3599                           ;main.c: 70:         lcd_display_cursor(0,0);
  3600     00CE  01FC               	clrf	lcd_display_cursor@position
  3601     00CF  3000               	movlw	0
  3602     00D0  3181  216D  3180   	fcall	_lcd_display_cursor
  3603     00D3                     l963:
  3604                           
  3605                           ;main.c: 71:         lcd_display_message("Hello, World!");
  3606     00D3  30D8               	movlw	low (STR_1| (0+32768))
  3607     00D4  00FC               	movwf	lcd_display_message@mess
  3608     00D5  3081               	movlw	high (STR_1| (0+32768))
  3609     00D6  00FD               	movwf	lcd_display_message@mess+1
  3610     00D7  3181  21B9  3180   	fcall	_lcd_display_message
  3611     00DA                     l965:
  3612                           
  3613                           ;main.c: 73:         delay(5000, ((void*)0));
  3614     00DA  3000               	movlw	0
  3615     00DB  00F7               	movwf	delay@t+7
  3616     00DC  3000               	movlw	0
  3617     00DD  00F6               	movwf	delay@t+6
  3618     00DE  3000               	movlw	0
  3619     00DF  00F5               	movwf	delay@t+5
  3620     00E0  3000               	movlw	0
  3621     00E1  00F4               	movwf	delay@t+4
  3622     00E2  3000               	movlw	0
  3623     00E3  00F3               	movwf	delay@t+3
  3624     00E4  3000               	movlw	0
  3625     00E5  00F2               	movwf	delay@t+2
  3626     00E6  3013               	movlw	19
  3627     00E7  00F1               	movwf	delay@t+1
  3628     00E8  3088               	movlw	136
  3629     00E9  00F0               	movwf	delay@t
  3630     00EA  3000               	movlw	0
  3631     00EB  00F8               	movwf	delay@f
  3632     00EC  00F9               	movwf	delay@f+1
  3633     00ED  3181  2196  3180   	fcall	_delay
  3634                           
  3635                           ;main.c: 74:     }
  3636     00F0  289D               	goto	l953
  3637     00F1  3180  282A         	ljmp	start
  3638     00F3                     __end_of_main:
  3639                           
  3640                           	psect	text1
  3641     0030                     __ptext1:	
  3642 ;; *************** function _lcd_init *****************
  3643 ;; Defined at:
  3644 ;;		line 23 in file "lcd.c"
  3645 ;; Parameters:    Size  Location     Type
  3646 ;;		None
  3647 ;; Auto vars:     Size  Location     Type
  3648 ;;		None
  3649 ;; Return value:  Size  Location     Type
  3650 ;;                  1    wreg      void 
  3651 ;; Registers used:
  3652 ;;		wreg, status,2, status,0, pclath, cstack
  3653 ;; Tracked objects:
  3654 ;;		On entry : 0/0
  3655 ;;		On exit  : 0/0
  3656 ;;		Unchanged: 0/0
  3657 ;; Data sizes:     COMMON   BANK0   BANK1   BANK2   BANK3   BANK4   BANK5   BANK6   BANK7   BANK8   BANK9  BANK10  BANK1
      +1  BANK12  BANK13  BANK14  BANK15  BANK16  BANK17  BANK18  BANK19  BANK20  BANK21  BANK22  BANK23  BANK24  BANK25  BANK2
      +6  BANK27  BANK28  BANK29  BANK30  BANK31  BANK32  BANK33  BANK34  BANK35  BANK36  BANK37  BANK38  BANK39  BANK40  BANK4
      +1  BANK42  BANK43  BANK44  BANK45  BANK46  BANK47  BANK48  BANK49  BANK50
  3658 ;;      Params:         0       0       0       0       0       0       0       0       0       0       0       0       
      +0       0       0       0       0       0       0       0       0       0       0       0       0       0       0       
      +0       0       0       0       0       0       0       0       0       0       0       0       0       0       0       
      +0       0       0       0       0       0       0       0       0       0
  3659 ;;      Locals:         0       0       0       0       0       0       0       0       0       0       0       0       
      +0       0       0       0       0       0       0       0       0       0       0       0       0       0       0       
      +0       0       0       0       0       0       0       0       0       0       0       0       0       0       0       
      +0       0       0       0       0       0       0       0       0       0
  3660 ;;      Temps:          0       0       0       0       0       0       0       0       0       0       0       0       
      +0       0       0       0       0       0       0       0       0       0       0       0       0       0       0       
      +0       0       0       0       0       0       0       0       0       0       0       0       0       0       0       
      +0       0       0       0       0       0       0       0       0       0
  3661 ;;      Totals:         0       0       0       0       0       0       0       0       0       0       0       0       
      +0       0       0       0       0       0       0       0       0       0       0       0       0       0       0       
      +0       0       0       0       0       0       0       0       0       0       0       0       0       0       0       
      +0       0       0       0       0       0       0       0       0       0
  3662 ;;Total ram usage:        0 bytes
  3663 ;; Hardware stack levels used: 1
  3664 ;; Hardware stack levels required when called: 3
  3665 ;; This function calls:
  3666 ;;		_delay
  3667 ;;		_lcd_cmd
  3668 ;; This function is called by:
  3669 ;;		_main
  3670 ;; This function uses a non-reentrant model
  3671 ;;
  3672                           
  3673     0030                     _lcd_init:	
  3674                           ;psect for function _lcd_init
  3675                           
  3676     0030                     l905:	
  3677                           ;incstack = 0
  3678                           ; Regs used in _lcd_init: [wreg+status,2+status,0+pclath+cstack]
  3679                           
  3680                           
  3681                           ;lcd.c: 24:     delay(600, ((void*)0));
  3682     0030  3000               	movlw	0
  3683     0031  00F7               	movwf	delay@t+7
  3684     0032  3000               	movlw	0
  3685     0033  00F6               	movwf	delay@t+6
  3686     0034  3000               	movlw	0
  3687     0035  00F5               	movwf	delay@t+5
  3688     0036  3000               	movlw	0
  3689     0037  00F4               	movwf	delay@t+4
  3690     0038  3000               	movlw	0
  3691     0039  00F3               	movwf	delay@t+3
  3692     003A  3000               	movlw	0
  3693     003B  00F2               	movwf	delay@t+2
  3694     003C  3002               	movlw	2
  3695     003D  00F1               	movwf	delay@t+1
  3696     003E  3058               	movlw	88
  3697     003F  00F0               	movwf	delay@t
  3698     0040  3000               	movlw	0
  3699     0041  00F8               	movwf	delay@f
  3700     0042  00F9               	movwf	delay@f+1
  3701     0043  3181  2196  3180   	fcall	_delay
  3702     0046                     l907:
  3703                           
  3704                           ;lcd.c: 25:     LATB = 0x23;
  3705     0046  3023               	movlw	35
  3706     0047  0140               	movlb	0	; select bank0
  3707     0048  0097               	movwf	23	;volatile
  3708     0049                     l909:
  3709                           
  3710                           ;lcd.c: 26:     LATB = 0x03;
  3711     0049  3003               	movlw	3
  3712     004A  0097               	movwf	23	;volatile
  3713                           
  3714                           ;lcd.c: 27:     delay(200, ((void*)0));
  3715     004B  30C8               	movlw	200
  3716     004C  00F0               	movwf	delay@t
  3717     004D  01F1               	clrf	delay@t+1
  3718     004E  01F2               	clrf	delay@t+2
  3719     004F  01F3               	clrf	delay@t+3
  3720     0050  01F4               	clrf	delay@t+4
  3721     0051  01F5               	clrf	delay@t+5
  3722     0052  01F6               	clrf	delay@t+6
  3723     0053  01F7               	clrf	delay@t+7
  3724     0054  3000               	movlw	0
  3725     0055  00F8               	movwf	delay@f
  3726     0056  00F9               	movwf	delay@f+1
  3727     0057  3181  2196  3180   	fcall	_delay
  3728     005A                     l911:
  3729                           
  3730                           ;lcd.c: 28:     LATB = 0x22;
  3731     005A  3022               	movlw	34
  3732     005B  0140               	movlb	0	; select bank0
  3733     005C  0097               	movwf	23	;volatile
  3734     005D                     l913:
  3735                           
  3736                           ;lcd.c: 29:     LATB = 0x02;
  3737     005D  3002               	movlw	2
  3738     005E  0097               	movwf	23	;volatile
  3739                           
  3740                           ;lcd.c: 30:     delay(50, ((void*)0));
  3741     005F  3032               	movlw	50
  3742     0060  00F0               	movwf	delay@t
  3743     0061  01F1               	clrf	delay@t+1
  3744     0062  01F2               	clrf	delay@t+2
  3745     0063  01F3               	clrf	delay@t+3
  3746     0064  01F4               	clrf	delay@t+4
  3747     0065  01F5               	clrf	delay@t+5
  3748     0066  01F6               	clrf	delay@t+6
  3749     0067  01F7               	clrf	delay@t+7
  3750     0068  3000               	movlw	0
  3751     0069  00F8               	movwf	delay@f
  3752     006A  00F9               	movwf	delay@f+1
  3753     006B  3181  2196  3180   	fcall	_delay
  3754     006E                     l915:
  3755                           
  3756                           ;lcd.c: 31:     LATB = 0x22;
  3757     006E  3022               	movlw	34
  3758     006F  0140               	movlb	0	; select bank0
  3759     0070  0097               	movwf	23	;volatile
  3760     0071                     l917:
  3761                           
  3762                           ;lcd.c: 32:     LATB = 0x02;
  3763     0071  3002               	movlw	2
  3764     0072  0097               	movwf	23	;volatile
  3765                           
  3766                           ;lcd.c: 33:     delay(50, ((void*)0));
  3767     0073  3032               	movlw	50
  3768     0074  00F0               	movwf	delay@t
  3769     0075  01F1               	clrf	delay@t+1
  3770     0076  01F2               	clrf	delay@t+2
  3771     0077  01F3               	clrf	delay@t+3
  3772     0078  01F4               	clrf	delay@t+4
  3773     0079  01F5               	clrf	delay@t+5
  3774     007A  01F6               	clrf	delay@t+6
  3775     007B  01F7               	clrf	delay@t+7
  3776     007C  3000               	movlw	0
  3777     007D  00F8               	movwf	delay@f
  3778     007E  00F9               	movwf	delay@f+1
  3779     007F  3181  2196  3180   	fcall	_delay
  3780                           
  3781                           ;lcd.c: 35:     lcd_cmd(0x28);
  3782     0082  3028               	movlw	40
  3783     0083  3181  2131  3180   	fcall	_lcd_cmd
  3784                           
  3785                           ;lcd.c: 36:     lcd_cmd(0x0f);
  3786     0086  300F               	movlw	15
  3787     0087  3181  2131  3180   	fcall	_lcd_cmd
  3788                           
  3789                           ;lcd.c: 37:     lcd_cmd(0x01);
  3790     008A  3001               	movlw	1
  3791     008B  3181  2131  3180   	fcall	_lcd_cmd
  3792                           
  3793                           ;lcd.c: 38:     lcd_cmd(0x06);
  3794     008E  3006               	movlw	6
  3795     008F  3181  2131  3180   	fcall	_lcd_cmd
  3796     0092                     l10:
  3797     0092  0008               	return
  3798     0093                     __end_of_lcd_init:
  3799                           
  3800                           	psect	text2
  3801     01B9                     __ptext2:	
  3802 ;; *************** function _lcd_display_message *****************
  3803 ;; Defined at:
  3804 ;;		line 51 in file "lcd.c"
  3805 ;; Parameters:    Size  Location     Type
  3806 ;;  mess            2   12[COMMON] PTR const unsigned char 
  3807 ;;		 -> STR_1(14), 
  3808 ;; Auto vars:     Size  Location     Type
  3809 ;;  i               2    1[BANK0 ] unsigned int 
  3810 ;; Return value:  Size  Location     Type
  3811 ;;                  1    wreg      void 
  3812 ;; Registers used:
  3813 ;;		wreg, fsr0l, fsr0h, status,2, status,0, pclath, cstack
  3814 ;; Tracked objects:
  3815 ;;		On entry : 0/0
  3816 ;;		On exit  : 0/0
  3817 ;;		Unchanged: 0/0
  3818 ;; Data sizes:     COMMON   BANK0   BANK1   BANK2   BANK3   BANK4   BANK5   BANK6   BANK7   BANK8   BANK9  BANK10  BANK1
      +1  BANK12  BANK13  BANK14  BANK15  BANK16  BANK17  BANK18  BANK19  BANK20  BANK21  BANK22  BANK23  BANK24  BANK25  BANK2
      +6  BANK27  BANK28  BANK29  BANK30  BANK31  BANK32  BANK33  BANK34  BANK35  BANK36  BANK37  BANK38  BANK39  BANK40  BANK4
      +1  BANK42  BANK43  BANK44  BANK45  BANK46  BANK47  BANK48  BANK49  BANK50
  3819 ;;      Params:         2       0       0       0       0       0       0       0       0       0       0       0       
      +0       0       0       0       0       0       0       0       0       0       0       0       0       0       0       
      +0       0       0       0       0       0       0       0       0       0       0       0       0       0       0       
      +0       0       0       0       0       0       0       0       0       0
  3820 ;;      Locals:         0       2       0       0       0       0       0       0       0       0       0       0       
      +0       0       0       0       0       0       0       0       0       0       0       0       0       0       0       
      +0       0       0       0       0       0       0       0       0       0       0       0       0       0       0       
      +0       0       0       0       0       0       0       0       0       0
  3821 ;;      Temps:          0       1       0       0       0       0       0       0       0       0       0       0       
      +0       0       0       0       0       0       0       0       0       0       0       0       0       0       0       
      +0       0       0       0       0       0       0       0       0       0       0       0       0       0       0       
      +0       0       0       0       0       0       0       0       0       0
  3822 ;;      Totals:         2       3       0       0       0       0       0       0       0       0       0       0       
      +0       0       0       0       0       0       0       0       0       0       0       0       0       0       0       
      +0       0       0       0       0       0       0       0       0       0       0       0       0       0       0       
      +0       0       0       0       0       0       0       0       0       0
  3823 ;;Total ram usage:        5 bytes
  3824 ;; Hardware stack levels used: 1
  3825 ;; Hardware stack levels required when called: 3
  3826 ;; This function calls:
  3827 ;;		_lcd_char
  3828 ;; This function is called by:
  3829 ;;		_main
  3830 ;; This function uses a non-reentrant model
  3831 ;;
  3832                           
  3833     01B9                     _lcd_display_message:	
  3834                           ;psect for function _lcd_display_message
  3835                           
  3836     01B9                     l919:	
  3837                           ;incstack = 0
  3838                           ; Regs used in _lcd_display_message: [wreg-fsr0h+status,2+status,0+pclath+cstack]
  3839                           
  3840                           
  3841                           ;lcd.c: 51: void lcd_display_message(const unsigned char * mess);lcd.c: 52: {;lcd.c: 53:
      +                               unsigned int i=0;
  3842     01B9  0140               	movlb	0	; select bank0
  3843     01BA  01A9               	clrf	lcd_display_message@i
  3844     01BB  01AA               	clrf	lcd_display_message@i+1
  3845                           
  3846                           ;lcd.c: 54:     while(mess[i] != 0)
  3847     01BC  29CC               	goto	l925
  3848     01BD                     l921:
  3849                           
  3850                           ;lcd.c: 55:     {;lcd.c: 56:         lcd_char(mess[i]);
  3851     01BD  087C               	movf	lcd_display_message@mess,w
  3852     01BE  0729               	addwf	lcd_display_message@i,w
  3853     01BF  0084               	movwf	4
  3854     01C0  087D               	movf	lcd_display_message@mess+1,w
  3855     01C1  3D2A               	addwfc	lcd_display_message@i+1,w
  3856     01C2  0085               	movwf	5
  3857     01C3  0800               	movf	0,w	;code access
  3858     01C4  3180  20F3  3181   	fcall	_lcd_char
  3859     01C7                     l923:
  3860                           
  3861                           ;lcd.c: 57:         i++;
  3862     01C7  3001               	movlw	1
  3863     01C8  0140               	movlb	0	; select bank0
  3864     01C9  07A9               	addwf	lcd_display_message@i,f
  3865     01CA  3000               	movlw	0
  3866     01CB  3DAA               	addwfc	lcd_display_message@i+1,f
  3867     01CC                     l925:
  3868                           
  3869                           ;lcd.c: 54:     while(mess[i] != 0)
  3870     01CC  087C               	movf	lcd_display_message@mess,w
  3871     01CD  0729               	addwf	lcd_display_message@i,w
  3872     01CE  0084               	movwf	4
  3873     01CF  087D               	movf	lcd_display_message@mess+1,w
  3874     01D0  3D2A               	addwfc	lcd_display_message@i+1,w
  3875     01D1  0085               	movwf	5
  3876     01D2  0012               	moviw fsr0++
  3877     01D3  1D03               	btfss	3,2
  3878     01D4  29D6               	goto	u221
  3879     01D5  29D7               	goto	u220
  3880     01D6                     u221:
  3881     01D6  29BD               	goto	l921
  3882     01D7                     u220:
  3883     01D7                     l19:
  3884     01D7  0008               	return
  3885     01D8                     __end_of_lcd_display_message:
  3886                           
  3887                           	psect	text3
  3888     00F3                     __ptext3:	
  3889 ;; *************** function _lcd_char *****************
  3890 ;; Defined at:
  3891 ;;		line 41 in file "lcd.c"
  3892 ;; Parameters:    Size  Location     Type
  3893 ;;  c               1    wreg     unsigned char 
  3894 ;; Auto vars:     Size  Location     Type
  3895 ;;  c               1   11[COMMON] unsigned char 
  3896 ;; Return value:  Size  Location     Type
  3897 ;;                  1    wreg      void 
  3898 ;; Registers used:
  3899 ;;		wreg, status,2, status,0, pclath, cstack
  3900 ;; Tracked objects:
  3901 ;;		On entry : 0/0
  3902 ;;		On exit  : 0/0
  3903 ;;		Unchanged: 0/0
  3904 ;; Data sizes:     COMMON   BANK0   BANK1   BANK2   BANK3   BANK4   BANK5   BANK6   BANK7   BANK8   BANK9  BANK10  BANK1
      +1  BANK12  BANK13  BANK14  BANK15  BANK16  BANK17  BANK18  BANK19  BANK20  BANK21  BANK22  BANK23  BANK24  BANK25  BANK2
      +6  BANK27  BANK28  BANK29  BANK30  BANK31  BANK32  BANK33  BANK34  BANK35  BANK36  BANK37  BANK38  BANK39  BANK40  BANK4
      +1  BANK42  BANK43  BANK44  BANK45  BANK46  BANK47  BANK48  BANK49  BANK50
  3905 ;;      Params:         0       0       0       0       0       0       0       0       0       0       0       0       
      +0       0       0       0       0       0       0       0       0       0       0       0       0       0       0       
      +0       0       0       0       0       0       0       0       0       0       0       0       0       0       0       
      +0       0       0       0       0       0       0       0       0       0
  3906 ;;      Locals:         1       0       0       0       0       0       0       0       0       0       0       0       
      +0       0       0       0       0       0       0       0       0       0       0       0       0       0       0       
      +0       0       0       0       0       0       0       0       0       0       0       0       0       0       0       
      +0       0       0       0       0       0       0       0       0       0
  3907 ;;      Temps:          1       0       0       0       0       0       0       0       0       0       0       0       
      +0       0       0       0       0       0       0       0       0       0       0       0       0       0       0       
      +0       0       0       0       0       0       0       0       0       0       0       0       0       0       0       
      +0       0       0       0       0       0       0       0       0       0
  3908 ;;      Totals:         2       0       0       0       0       0       0       0       0       0       0       0       
      +0       0       0       0       0       0       0       0       0       0       0       0       0       0       0       
      +0       0       0       0       0       0       0       0       0       0       0       0       0       0       0       
      +0       0       0       0       0       0       0       0       0       0
  3909 ;;Total ram usage:        2 bytes
  3910 ;; Hardware stack levels used: 1
  3911 ;; Hardware stack levels required when called: 2
  3912 ;; This function calls:
  3913 ;;		_delay
  3914 ;; This function is called by:
  3915 ;;		_lcd_display_message
  3916 ;; This function uses a non-reentrant model
  3917 ;;
  3918                           
  3919     00F3                     _lcd_char:	
  3920                           ;psect for function _lcd_char
  3921                           
  3922                           
  3923                           ;incstack = 0
  3924                           ; Regs used in _lcd_char: [wreg+status,2+status,0+pclath+cstack]
  3925                           ;lcd_char@c stored from wreg
  3926     00F3  00FB               	movwf	lcd_char@c
  3927     00F4                     l895:
  3928                           
  3929                           ;lcd.c: 41: void lcd_char(unsigned char c);lcd.c: 42: {;lcd.c: 43:     LATB = 0x30 + ((c
      +                           >> 4) & 0x0f);
  3930     00F4  087B               	movf	lcd_char@c,w
  3931     00F5  00FA               	movwf	??_lcd_char
  3932     00F6  3004               	movlw	4
  3933     00F7                     u205:
  3934     00F7  36FA               	lsrf	??_lcd_char,f
  3935     00F8  0B89               	decfsz	9,f
  3936     00F9  28F7               	goto	u205
  3937     00FA  087A               	movf	??_lcd_char,w
  3938     00FB  390F               	andlw	15
  3939     00FC  3E30               	addlw	48
  3940     00FD  0140               	movlb	0	; select bank0
  3941     00FE  0097               	movwf	23	;volatile
  3942                           
  3943                           ;lcd.c: 44:     LATB = 0x10 + ((c >> 4) & 0x0f);
  3944     00FF  087B               	movf	lcd_char@c,w
  3945     0100  00FA               	movwf	??_lcd_char
  3946     0101  3004               	movlw	4
  3947     0102                     u215:
  3948     0102  36FA               	lsrf	??_lcd_char,f
  3949     0103  0B89               	decfsz	9,f
  3950     0104  2902               	goto	u215
  3951     0105  087A               	movf	??_lcd_char,w
  3952     0106  390F               	andlw	15
  3953     0107  3E10               	addlw	16
  3954     0108  0097               	movwf	23	;volatile
  3955     0109                     l897:
  3956                           
  3957                           ;lcd.c: 45:     delay(1, ((void*)0));
  3958     0109  01F0               	clrf	delay@t
  3959     010A  0AF0               	incf	delay@t,f
  3960     010B  01F1               	clrf	delay@t+1
  3961     010C  01F2               	clrf	delay@t+2
  3962     010D  01F3               	clrf	delay@t+3
  3963     010E  01F4               	clrf	delay@t+4
  3964     010F  01F5               	clrf	delay@t+5
  3965     0110  01F6               	clrf	delay@t+6
  3966     0111  01F7               	clrf	delay@t+7
  3967     0112  3000               	movlw	0
  3968     0113  00F8               	movwf	delay@f
  3969     0114  00F9               	movwf	delay@f+1
  3970     0115  3181  2196  3180   	fcall	_delay
  3971     0118                     l899:
  3972                           
  3973                           ;lcd.c: 46:     LATB = 0x30 + (c & 0x0f);
  3974     0118  087B               	movf	lcd_char@c,w
  3975     0119  390F               	andlw	15
  3976     011A  3E30               	addlw	48
  3977     011B  0140               	movlb	0	; select bank0
  3978     011C  0097               	movwf	23	;volatile
  3979     011D                     l901:
  3980                           
  3981                           ;lcd.c: 47:     LATB = 0x10 + (c & 0x0f);
  3982     011D  087B               	movf	lcd_char@c,w
  3983     011E  390F               	andlw	15
  3984     011F  3E10               	addlw	16
  3985     0120  0097               	movwf	23	;volatile
  3986     0121                     l903:
  3987                           
  3988                           ;lcd.c: 48:     delay(1, ((void*)0));
  3989     0121  01F0               	clrf	delay@t
  3990     0122  0AF0               	incf	delay@t,f
  3991     0123  01F1               	clrf	delay@t+1
  3992     0124  01F2               	clrf	delay@t+2
  3993     0125  01F3               	clrf	delay@t+3
  3994     0126  01F4               	clrf	delay@t+4
  3995     0127  01F5               	clrf	delay@t+5
  3996     0128  01F6               	clrf	delay@t+6
  3997     0129  01F7               	clrf	delay@t+7
  3998     012A  3000               	movlw	0
  3999     012B  00F8               	movwf	delay@f
  4000     012C  00F9               	movwf	delay@f+1
  4001     012D  3181  2196  3180   	fcall	_delay
  4002     0130                     l13:
  4003     0130  0008               	return
  4004     0131                     __end_of_lcd_char:
  4005                           
  4006                           	psect	text4
  4007     016D                     __ptext4:	
  4008 ;; *************** function _lcd_display_cursor *****************
  4009 ;; Defined at:
  4010 ;;		line 61 in file "lcd.c"
  4011 ;; Parameters:    Size  Location     Type
  4012 ;;  line            1    wreg     unsigned char 
  4013 ;;  position        1   12[COMMON] unsigned char 
  4014 ;; Auto vars:     Size  Location     Type
  4015 ;;  line            1   13[COMMON] unsigned char 
  4016 ;; Return value:  Size  Location     Type
  4017 ;;                  1    wreg      void 
  4018 ;; Registers used:
  4019 ;;		wreg, status,2, status,0, pclath, cstack
  4020 ;; Tracked objects:
  4021 ;;		On entry : 0/0
  4022 ;;		On exit  : 0/0
  4023 ;;		Unchanged: 0/0
  4024 ;; Data sizes:     COMMON   BANK0   BANK1   BANK2   BANK3   BANK4   BANK5   BANK6   BANK7   BANK8   BANK9  BANK10  BANK1
      +1  BANK12  BANK13  BANK14  BANK15  BANK16  BANK17  BANK18  BANK19  BANK20  BANK21  BANK22  BANK23  BANK24  BANK25  BANK2
      +6  BANK27  BANK28  BANK29  BANK30  BANK31  BANK32  BANK33  BANK34  BANK35  BANK36  BANK37  BANK38  BANK39  BANK40  BANK4
      +1  BANK42  BANK43  BANK44  BANK45  BANK46  BANK47  BANK48  BANK49  BANK50
  4025 ;;      Params:         1       0       0       0       0       0       0       0       0       0       0       0       
      +0       0       0       0       0       0       0       0       0       0       0       0       0       0       0       
      +0       0       0       0       0       0       0       0       0       0       0       0       0       0       0       
      +0       0       0       0       0       0       0       0       0       0
  4026 ;;      Locals:         1       0       0       0       0       0       0       0       0       0       0       0       
      +0       0       0       0       0       0       0       0       0       0       0       0       0       0       0       
      +0       0       0       0       0       0       0       0       0       0       0       0       0       0       0       
      +0       0       0       0       0       0       0       0       0       0
  4027 ;;      Temps:          0       0       0       0       0       0       0       0       0       0       0       0       
      +0       0       0       0       0       0       0       0       0       0       0       0       0       0       0       
      +0       0       0       0       0       0       0       0       0       0       0       0       0       0       0       
      +0       0       0       0       0       0       0       0       0       0
  4028 ;;      Totals:         2       0       0       0       0       0       0       0       0       0       0       0       
      +0       0       0       0       0       0       0       0       0       0       0       0       0       0       0       
      +0       0       0       0       0       0       0       0       0       0       0       0       0       0       0       
      +0       0       0       0       0       0       0       0       0       0
  4029 ;;Total ram usage:        2 bytes
  4030 ;; Hardware stack levels used: 1
  4031 ;; Hardware stack levels required when called: 3
  4032 ;; This function calls:
  4033 ;;		_lcd_cmd
  4034 ;; This function is called by:
  4035 ;;		_main
  4036 ;; This function uses a non-reentrant model
  4037 ;;
  4038                           
  4039     016D                     _lcd_display_cursor:	
  4040                           ;psect for function _lcd_display_cursor
  4041                           
  4042                           
  4043                           ;incstack = 0
  4044                           ; Regs used in _lcd_display_cursor: [wreg+status,2+status,0+pclath+cstack]
  4045                           ;lcd_display_cursor@line stored from wreg
  4046     016D  00FD               	movwf	lcd_display_cursor@line
  4047     016E                     l927:
  4048                           
  4049                           ;lcd.c: 64:     {;lcd.c: 65:         position = position + 0x00;
  4050     016E  087D               	movf	lcd_display_cursor@line,w
  4051     016F  1D03               	btfss	3,2
  4052     0170  2972               	goto	u231
  4053     0171  2973               	goto	u230
  4054     0172                     u231:
  4055     0172  2974               	goto	l931
  4056     0173                     u230:
  4057     0173  2990               	goto	l943
  4058     0174                     l931:
  4059     0174  037D               	decf	lcd_display_cursor@line,w
  4060     0175  1D03               	btfss	3,2
  4061     0176  2978               	goto	u241
  4062     0177  2979               	goto	u240
  4063     0178                     u241:
  4064     0178  297D               	goto	l935
  4065     0179                     u240:
  4066     0179                     l933:
  4067                           
  4068                           ;lcd.c: 67:         position = position + 0x40;
  4069     0179  087C               	movf	lcd_display_cursor@position,w
  4070     017A  3E40               	addlw	64
  4071     017B  00FC               	movwf	lcd_display_cursor@position
  4072                           
  4073                           ;lcd.c: 68:     } else if(line==2) {
  4074     017C  2990               	goto	l943
  4075     017D                     l935:
  4076     017D  3002               	movlw	2
  4077     017E  067D               	xorwf	lcd_display_cursor@line,w
  4078     017F  1D03               	btfss	3,2
  4079     0180  2982               	goto	u251
  4080     0181  2983               	goto	u250
  4081     0182                     u251:
  4082     0182  2987               	goto	l939
  4083     0183                     u250:
  4084     0183                     l937:
  4085                           
  4086                           ;lcd.c: 69:         position = position + 0x14;
  4087     0183  087C               	movf	lcd_display_cursor@position,w
  4088     0184  3E14               	addlw	20
  4089     0185  00FC               	movwf	lcd_display_cursor@position
  4090                           
  4091                           ;lcd.c: 70:     } else if(line==3) {
  4092     0186  2990               	goto	l943
  4093     0187                     l939:
  4094     0187  3003               	movlw	3
  4095     0188  067D               	xorwf	lcd_display_cursor@line,w
  4096     0189  1D03               	btfss	3,2
  4097     018A  298C               	goto	u261
  4098     018B  298D               	goto	u260
  4099     018C                     u261:
  4100     018C  2990               	goto	l943
  4101     018D                     u260:
  4102     018D                     l941:
  4103                           
  4104                           ;lcd.c: 71:         position = position + 0x54;
  4105     018D  087C               	movf	lcd_display_cursor@position,w
  4106     018E  3E54               	addlw	84
  4107     018F  00FC               	movwf	lcd_display_cursor@position
  4108     0190                     l943:
  4109                           
  4110                           ;lcd.c: 73:     lcd_cmd(0x80+position);
  4111     0190  087C               	movf	lcd_display_cursor@position,w
  4112     0191  3E80               	addlw	128
  4113     0192  3181  2131  3181   	fcall	_lcd_cmd
  4114     0195                     l29:
  4115     0195  0008               	return
  4116     0196                     __end_of_lcd_display_cursor:
  4117                           
  4118                           	psect	text5
  4119     0131                     __ptext5:	
  4120 ;; *************** function _lcd_cmd *****************
  4121 ;; Defined at:
  4122 ;;		line 12 in file "lcd.c"
  4123 ;; Parameters:    Size  Location     Type
  4124 ;;  cmd             1    wreg     unsigned char 
  4125 ;; Auto vars:     Size  Location     Type
  4126 ;;  cmd             1   11[COMMON] unsigned char 
  4127 ;; Return value:  Size  Location     Type
  4128 ;;                  1    wreg      void 
  4129 ;; Registers used:
  4130 ;;		wreg, status,2, status,0, pclath, cstack
  4131 ;; Tracked objects:
  4132 ;;		On entry : 0/0
  4133 ;;		On exit  : 0/0
  4134 ;;		Unchanged: 0/0
  4135 ;; Data sizes:     COMMON   BANK0   BANK1   BANK2   BANK3   BANK4   BANK5   BANK6   BANK7   BANK8   BANK9  BANK10  BANK1
      +1  BANK12  BANK13  BANK14  BANK15  BANK16  BANK17  BANK18  BANK19  BANK20  BANK21  BANK22  BANK23  BANK24  BANK25  BANK2
      +6  BANK27  BANK28  BANK29  BANK30  BANK31  BANK32  BANK33  BANK34  BANK35  BANK36  BANK37  BANK38  BANK39  BANK40  BANK4
      +1  BANK42  BANK43  BANK44  BANK45  BANK46  BANK47  BANK48  BANK49  BANK50
  4136 ;;      Params:         0       0       0       0       0       0       0       0       0       0       0       0       
      +0       0       0       0       0       0       0       0       0       0       0       0       0       0       0       
      +0       0       0       0       0       0       0       0       0       0       0       0       0       0       0       
      +0       0       0       0       0       0       0       0       0       0
  4137 ;;      Locals:         1       0       0       0       0       0       0       0       0       0       0       0       
      +0       0       0       0       0       0       0       0       0       0       0       0       0       0       0       
      +0       0       0       0       0       0       0       0       0       0       0       0       0       0       0       
      +0       0       0       0       0       0       0       0       0       0
  4138 ;;      Temps:          1       0       0       0       0       0       0       0       0       0       0       0       
      +0       0       0       0       0       0       0       0       0       0       0       0       0       0       0       
      +0       0       0       0       0       0       0       0       0       0       0       0       0       0       0       
      +0       0       0       0       0       0       0       0       0       0
  4139 ;;      Totals:         2       0       0       0       0       0       0       0       0       0       0       0       
      +0       0       0       0       0       0       0       0       0       0       0       0       0       0       0       
      +0       0       0       0       0       0       0       0       0       0       0       0       0       0       0       
      +0       0       0       0       0       0       0       0       0       0
  4140 ;;Total ram usage:        2 bytes
  4141 ;; Hardware stack levels used: 1
  4142 ;; Hardware stack levels required when called: 2
  4143 ;; This function calls:
  4144 ;;		_delay
  4145 ;; This function is called by:
  4146 ;;		_lcd_init
  4147 ;;		_lcd_display_cursor
  4148 ;; This function uses a non-reentrant model
  4149 ;;
  4150                           
  4151     0131                     _lcd_cmd:	
  4152                           ;psect for function _lcd_cmd
  4153                           
  4154                           
  4155                           ;incstack = 0
  4156                           ; Regs used in _lcd_cmd: [wreg+status,2+status,0+pclath+cstack]
  4157                           ;lcd_cmd@cmd stored from wreg
  4158     0131  00FB               	movwf	lcd_cmd@cmd
  4159     0132                     l885:
  4160                           
  4161                           ;lcd.c: 12: void lcd_cmd(unsigned char cmd);lcd.c: 13: {;lcd.c: 14:     LATB = 0x20 + ((
      +                          cmd >> 4) & 0x0f);
  4162     0132  087B               	movf	lcd_cmd@cmd,w
  4163     0133  00FA               	movwf	??_lcd_cmd
  4164     0134  3004               	movlw	4
  4165     0135                     u185:
  4166     0135  36FA               	lsrf	??_lcd_cmd,f
  4167     0136  0B89               	decfsz	9,f
  4168     0137  2935               	goto	u185
  4169     0138  087A               	movf	??_lcd_cmd,w
  4170     0139  390F               	andlw	15
  4171     013A  3E20               	addlw	32
  4172     013B  0140               	movlb	0	; select bank0
  4173     013C  0097               	movwf	23	;volatile
  4174                           
  4175                           ;lcd.c: 15:     LATB = (cmd >> 4) & 0x0f;
  4176     013D  087B               	movf	lcd_cmd@cmd,w
  4177     013E  00FA               	movwf	??_lcd_cmd
  4178     013F  3004               	movlw	4
  4179     0140                     u195:
  4180     0140  36FA               	lsrf	??_lcd_cmd,f
  4181     0141  0B89               	decfsz	9,f
  4182     0142  2940               	goto	u195
  4183     0143  087A               	movf	??_lcd_cmd,w
  4184     0144  390F               	andlw	15
  4185     0145  0097               	movwf	23	;volatile
  4186     0146                     l887:
  4187                           
  4188                           ;lcd.c: 16:     delay(1, ((void*)0));
  4189     0146  01F0               	clrf	delay@t
  4190     0147  0AF0               	incf	delay@t,f
  4191     0148  01F1               	clrf	delay@t+1
  4192     0149  01F2               	clrf	delay@t+2
  4193     014A  01F3               	clrf	delay@t+3
  4194     014B  01F4               	clrf	delay@t+4
  4195     014C  01F5               	clrf	delay@t+5
  4196     014D  01F6               	clrf	delay@t+6
  4197     014E  01F7               	clrf	delay@t+7
  4198     014F  3000               	movlw	0
  4199     0150  00F8               	movwf	delay@f
  4200     0151  00F9               	movwf	delay@f+1
  4201     0152  3181  2196  3181   	fcall	_delay
  4202     0155                     l889:
  4203                           
  4204                           ;lcd.c: 17:     LATB = 0x20 + (cmd & 0x0f);
  4205     0155  087B               	movf	lcd_cmd@cmd,w
  4206     0156  390F               	andlw	15
  4207     0157  3E20               	addlw	32
  4208     0158  0140               	movlb	0	; select bank0
  4209     0159  0097               	movwf	23	;volatile
  4210     015A                     l891:
  4211                           
  4212                           ;lcd.c: 18:     LATB = cmd & 0x0f;
  4213     015A  087B               	movf	lcd_cmd@cmd,w
  4214     015B  390F               	andlw	15
  4215     015C  0097               	movwf	23	;volatile
  4216     015D                     l893:
  4217                           
  4218                           ;lcd.c: 19:     delay(1, ((void*)0));
  4219     015D  01F0               	clrf	delay@t
  4220     015E  0AF0               	incf	delay@t,f
  4221     015F  01F1               	clrf	delay@t+1
  4222     0160  01F2               	clrf	delay@t+2
  4223     0161  01F3               	clrf	delay@t+3
  4224     0162  01F4               	clrf	delay@t+4
  4225     0163  01F5               	clrf	delay@t+5
  4226     0164  01F6               	clrf	delay@t+6
  4227     0165  01F7               	clrf	delay@t+7
  4228     0166  3000               	movlw	0
  4229     0167  00F8               	movwf	delay@f
  4230     0168  00F9               	movwf	delay@f+1
  4231     0169  3181  2196  3181   	fcall	_delay
  4232     016C                     l7:
  4233     016C  0008               	return
  4234     016D                     __end_of_lcd_cmd:
  4235                           
  4236                           	psect	text6
  4237     0196                     __ptext6:	
  4238 ;; *************** function _delay *****************
  4239 ;; Defined at:
  4240 ;;		line 28 in file "delay.c"
  4241 ;; Parameters:    Size  Location     Type
  4242 ;;  t               8    0[COMMON] long long 
  4243 ;;  f               2    8[COMMON] PTR FTN()void 
  4244 ;;		 -> Absolute function(1), 
  4245 ;; Auto vars:     Size  Location     Type
  4246 ;;		None
  4247 ;; Return value:  Size  Location     Type
  4248 ;;                  1    wreg      void 
  4249 ;; Registers used:
  4250 ;;		wreg, status,2
  4251 ;; Tracked objects:
  4252 ;;		On entry : 0/0
  4253 ;;		On exit  : 0/0
  4254 ;;		Unchanged: 0/0
  4255 ;; Data sizes:     COMMON   BANK0   BANK1   BANK2   BANK3   BANK4   BANK5   BANK6   BANK7   BANK8   BANK9  BANK10  BANK1
      +1  BANK12  BANK13  BANK14  BANK15  BANK16  BANK17  BANK18  BANK19  BANK20  BANK21  BANK22  BANK23  BANK24  BANK25  BANK2
      +6  BANK27  BANK28  BANK29  BANK30  BANK31  BANK32  BANK33  BANK34  BANK35  BANK36  BANK37  BANK38  BANK39  BANK40  BANK4
      +1  BANK42  BANK43  BANK44  BANK45  BANK46  BANK47  BANK48  BANK49  BANK50
  4256 ;;      Params:        10       0       0       0       0       0       0       0       0       0       0       0       
      +0       0       0       0       0       0       0       0       0       0       0       0       0       0       0       
      +0       0       0       0       0       0       0       0       0       0       0       0       0       0       0       
      +0       0       0       0       0       0       0       0       0       0
  4257 ;;      Locals:         0       0       0       0       0       0       0       0       0       0       0       0       
      +0       0       0       0       0       0       0       0       0       0       0       0       0       0       0       
      +0       0       0       0       0       0       0       0       0       0       0       0       0       0       0       
      +0       0       0       0       0       0       0       0       0       0
  4258 ;;      Temps:          0       0       0       0       0       0       0       0       0       0       0       0       
      +0       0       0       0       0       0       0       0       0       0       0       0       0       0       0       
      +0       0       0       0       0       0       0       0       0       0       0       0       0       0       0       
      +0       0       0       0       0       0       0       0       0       0
  4259 ;;      Totals:        10       0       0       0       0       0       0       0       0       0       0       0       
      +0       0       0       0       0       0       0       0       0       0       0       0       0       0       0       
      +0       0       0       0       0       0       0       0       0       0       0       0       0       0       0       
      +0       0       0       0       0       0       0       0       0       0
  4260 ;;Total ram usage:       10 bytes
  4261 ;; Hardware stack levels used: 1
  4262 ;; Hardware stack levels required when called: 1
  4263 ;; This function calls:
  4264 ;;		Nothing
  4265 ;; This function is called by:
  4266 ;;		_lcd_cmd
  4267 ;;		_lcd_init
  4268 ;;		_lcd_char
  4269 ;;		_main
  4270 ;; This function uses a non-reentrant model
  4271 ;;
  4272                           
  4273     0196                     _delay:	
  4274                           ;psect for function _delay
  4275                           
  4276     0196                     l875:	
  4277                           ;incstack = 0
  4278                           ; Regs used in _delay: [wreg+status,2]
  4279                           
  4280                           
  4281                           ;delay.c: 29:     TMR0L = 0;
  4282     0196  0140               	movlb	0	; select bank0
  4283     0197  019C               	clrf	28	;volatile
  4284     0198                     l877:
  4285                           
  4286                           ;delay.c: 30:     PIR0bits.TMR0IF=0;
  4287     0198  014E               	movlb	14	; select bank14
  4288     0199  128C               	bcf	12,5	;volatile
  4289     019A                     l879:
  4290                           
  4291                           ;delay.c: 32:     delay_time = t;
  4292     019A  0870               	movf	delay@t,w
  4293     019B  0140               	movlb	0	; select bank0
  4294     019C  00A0               	movwf	_delay_time
  4295     019D  0871               	movf	delay@t+1,w
  4296     019E  00A1               	movwf	_delay_time+1
  4297     019F  0872               	movf	delay@t+2,w
  4298     01A0  00A2               	movwf	_delay_time+2
  4299     01A1  0873               	movf	delay@t+3,w
  4300     01A2  00A3               	movwf	_delay_time+3
  4301     01A3  0874               	movf	delay@t+4,w
  4302     01A4  00A4               	movwf	_delay_time+4
  4303     01A5  0875               	movf	delay@t+5,w
  4304     01A6  00A5               	movwf	_delay_time+5
  4305     01A7  0876               	movf	delay@t+6,w
  4306     01A8  00A6               	movwf	_delay_time+6
  4307     01A9  0877               	movf	delay@t+7,w
  4308     01AA  00A7               	movwf	_delay_time+7
  4309                           
  4310                           ;delay.c: 34:     while(delay_time != 0) {
  4311     01AB  29AC               	goto	l883
  4312     01AC                     l83:	
  4313                           ;delay.c: 37:         }
  4314                           
  4315     01AC                     l883:
  4316                           
  4317                           ;delay.c: 34:     while(delay_time != 0) {
  4318     01AC  0820               	movf	_delay_time,w
  4319     01AD  0421               	iorwf	_delay_time+1,w
  4320     01AE  0422               	iorwf	_delay_time+2,w
  4321     01AF  0423               	iorwf	_delay_time+3,w
  4322     01B0  0424               	iorwf	_delay_time+4,w
  4323     01B1  0425               	iorwf	_delay_time+5,w
  4324     01B2  0426               	iorwf	_delay_time+6,w
  4325     01B3  0427               	iorwf	_delay_time+7,w
  4326     01B4  1D03               	skipz
  4327     01B5  29B7               	goto	u171
  4328     01B6  29B8               	goto	u170
  4329     01B7                     u171:
  4330     01B7  29AC               	goto	l83
  4331     01B8                     u170:
  4332     01B8                     l85:
  4333     01B8  0008               	return
  4334     01B9                     __end_of_delay:
  4335                           
  4336                           	psect	text7
  4337     01E6                     __ptext7:	
  4338 ;; *************** function _delay_init *****************
  4339 ;; Defined at:
  4340 ;;		line 22 in file "delay.c"
  4341 ;; Parameters:    Size  Location     Type
  4342 ;;		None
  4343 ;; Auto vars:     Size  Location     Type
  4344 ;;		None
  4345 ;; Return value:  Size  Location     Type
  4346 ;;                  1    wreg      void 
  4347 ;; Registers used:
  4348 ;;		wreg
  4349 ;; Tracked objects:
  4350 ;;		On entry : 0/0
  4351 ;;		On exit  : 0/0
  4352 ;;		Unchanged: 0/0
  4353 ;; Data sizes:     COMMON   BANK0   BANK1   BANK2   BANK3   BANK4   BANK5   BANK6   BANK7   BANK8   BANK9  BANK10  BANK1
      +1  BANK12  BANK13  BANK14  BANK15  BANK16  BANK17  BANK18  BANK19  BANK20  BANK21  BANK22  BANK23  BANK24  BANK25  BANK2
      +6  BANK27  BANK28  BANK29  BANK30  BANK31  BANK32  BANK33  BANK34  BANK35  BANK36  BANK37  BANK38  BANK39  BANK40  BANK4
      +1  BANK42  BANK43  BANK44  BANK45  BANK46  BANK47  BANK48  BANK49  BANK50
  4354 ;;      Params:         0       0       0       0       0       0       0       0       0       0       0       0       
      +0       0       0       0       0       0       0       0       0       0       0       0       0       0       0       
      +0       0       0       0       0       0       0       0       0       0       0       0       0       0       0       
      +0       0       0       0       0       0       0       0       0       0
  4355 ;;      Locals:         0       0       0       0       0       0       0       0       0       0       0       0       
      +0       0       0       0       0       0       0       0       0       0       0       0       0       0       0       
      +0       0       0       0       0       0       0       0       0       0       0       0       0       0       0       
      +0       0       0       0       0       0       0       0       0       0
  4356 ;;      Temps:          0       0       0       0       0       0       0       0       0       0       0       0       
      +0       0       0       0       0       0       0       0       0       0       0       0       0       0       0       
      +0       0       0       0       0       0       0       0       0       0       0       0       0       0       0       
      +0       0       0       0       0       0       0       0       0       0
  4357 ;;      Totals:         0       0       0       0       0       0       0       0       0       0       0       0       
      +0       0       0       0       0       0       0       0       0       0       0       0       0       0       0       
      +0       0       0       0       0       0       0       0       0       0       0       0       0       0       0       
      +0       0       0       0       0       0       0       0       0       0
  4358 ;;Total ram usage:        0 bytes
  4359 ;; Hardware stack levels used: 1
  4360 ;; Hardware stack levels required when called: 1
  4361 ;; This function calls:
  4362 ;;		Nothing
  4363 ;; This function is called by:
  4364 ;;		_main
  4365 ;; This function uses a non-reentrant model
  4366 ;;
  4367                           
  4368     01E6                     _delay_init:	
  4369                           ;psect for function _delay_init
  4370                           
  4371     01E6                     l801:	
  4372                           ;incstack = 0
  4373                           ; Regs used in _delay_init: [wreg]
  4374                           
  4375                           
  4376                           ;delay.c: 23:     T0CON0 = 0b10000000;
  4377     01E6  3080               	movlw	128
  4378     01E7  0140               	movlb	0	; select bank0
  4379     01E8  009E               	movwf	30	;volatile
  4380                           
  4381                           ;delay.c: 24:     T0CON1 = 0b01000101;
  4382     01E9  3045               	movlw	69
  4383     01EA  009F               	movwf	31	;volatile
  4384     01EB                     l803:
  4385                           
  4386                           ;delay.c: 25:     PIE0bits.TMR0IE = 1;
  4387     01EB  014E               	movlb	14	; select bank14
  4388     01EC  1696               	bsf	22,5	;volatile
  4389     01ED                     l78:
  4390     01ED  0008               	return
  4391     01EE                     __end_of_delay_init:
  4392                           
  4393                           	psect	intentry
  4394     0004                     __pintentry:	
  4395 ;; *************** function _isr *****************
  4396 ;; Defined at:
  4397 ;;		line 14 in file "delay.c"
  4398 ;; Parameters:    Size  Location     Type
  4399 ;;		None
  4400 ;; Auto vars:     Size  Location     Type
  4401 ;;		None
  4402 ;; Return value:  Size  Location     Type
  4403 ;;                  1    wreg      void 
  4404 ;; Registers used:
  4405 ;;		wreg, status,2, status,0
  4406 ;; Tracked objects:
  4407 ;;		On entry : 0/0
  4408 ;;		On exit  : 0/0
  4409 ;;		Unchanged: 0/0
  4410 ;; Data sizes:     COMMON   BANK0   BANK1   BANK2   BANK3   BANK4   BANK5   BANK6   BANK7   BANK8   BANK9  BANK10  BANK1
      +1  BANK12  BANK13  BANK14  BANK15  BANK16  BANK17  BANK18  BANK19  BANK20  BANK21  BANK22  BANK23  BANK24  BANK25  BANK2
      +6  BANK27  BANK28  BANK29  BANK30  BANK31  BANK32  BANK33  BANK34  BANK35  BANK36  BANK37  BANK38  BANK39  BANK40  BANK4
      +1  BANK42  BANK43  BANK44  BANK45  BANK46  BANK47  BANK48  BANK49  BANK50
  4411 ;;      Params:         0       0       0       0       0       0       0       0       0       0       0       0       
      +0       0       0       0       0       0       0       0       0       0       0       0       0       0       0       
      +0       0       0       0       0       0       0       0       0       0       0       0       0       0       0       
      +0       0       0       0       0       0       0       0       0       0
  4412 ;;      Locals:         0       0       0       0       0       0       0       0       0       0       0       0       
      +0       0       0       0       0       0       0       0       0       0       0       0       0       0       0       
      +0       0       0       0       0       0       0       0       0       0       0       0       0       0       0       
      +0       0       0       0       0       0       0       0       0       0
  4413 ;;      Temps:          0       0       0       0       0       0       0       0       0       0       0       0       
      +0       0       0       0       0       0       0       0       0       0       0       0       0       0       0       
      +0       0       0       0       0       0       0       0       0       0       0       0       0       0       0       
      +0       0       0       0       0       0       0       0       0       0
  4414 ;;      Totals:         0       0       0       0       0       0       0       0       0       0       0       0       
      +0       0       0       0       0       0       0       0       0       0       0       0       0       0       0       
      +0       0       0       0       0       0       0       0       0       0       0       0       0       0       0       
      +0       0       0       0       0       0       0       0       0       0
  4415 ;;Total ram usage:        0 bytes
  4416 ;; Hardware stack levels used: 1
  4417 ;; This function calls:
  4418 ;;		Nothing
  4419 ;; This function is called by:
  4420 ;;		Interrupt level 1
  4421 ;; This function uses a non-reentrant model
  4422 ;;
  4423                           
  4424     0004                     _isr:
  4425                           
  4426                           ;incstack = 0
  4427     0004  147E               	bsf	int$flags,0	;set compiler interrupt flag (level 1)
  4428                           
  4429                           ; Regs used in _isr: [wreg+status,2+status,0]
  4430     0005  3180               	pagesel	$
  4431     0006                     i1l967:
  4432                           
  4433                           ;delay.c: 15:     TMR0L = 156;
  4434     0006  309C               	movlw	156
  4435     0007  0140               	movlb	0	; select bank0
  4436     0008  009C               	movwf	28	;volatile
  4437     0009                     i1l969:
  4438                           
  4439                           ;delay.c: 16:     PIR0bits.TMR0IF = 0;
  4440     0009  014E               	movlb	14	; select bank14
  4441     000A  128C               	bcf	12,5	;volatile
  4442                           
  4443                           ;delay.c: 17:     if(delay_time != 0) {
  4444     000B  0140               	movlb	0	; select bank0
  4445     000C  0820               	movf	_delay_time,w
  4446     000D  0421               	iorwf	_delay_time+1,w
  4447     000E  0422               	iorwf	_delay_time+2,w
  4448     000F  0423               	iorwf	_delay_time+3,w
  4449     0010  0424               	iorwf	_delay_time+4,w
  4450     0011  0425               	iorwf	_delay_time+5,w
  4451     0012  0426               	iorwf	_delay_time+6,w
  4452     0013  0427               	iorwf	_delay_time+7,w
  4453     0014  1903               	skipnz
  4454     0015  2817               	goto	u27_21
  4455     0016  2818               	goto	u27_20
  4456     0017                     u27_21:
  4457     0017  2828               	goto	i1l75
  4458     0018                     u27_20:
  4459     0018                     i1l971:
  4460                           
  4461                           ;delay.c: 18:         delay_time--;
  4462     0018  30FF               	movlw	255
  4463     0019  07A0               	addwf	_delay_time,f
  4464     001A  30FF               	movlw	255
  4465     001B  3DA1               	addwfc	_delay_time+1,f
  4466     001C  30FF               	movlw	255
  4467     001D  3DA2               	addwfc	_delay_time+2,f
  4468     001E  30FF               	movlw	255
  4469     001F  3DA3               	addwfc	_delay_time+3,f
  4470     0020  30FF               	movlw	255
  4471     0021  3DA4               	addwfc	_delay_time+4,f
  4472     0022  30FF               	movlw	255
  4473     0023  3DA5               	addwfc	_delay_time+5,f
  4474     0024  30FF               	movlw	255
  4475     0025  3DA6               	addwfc	_delay_time+6,f
  4476     0026  30FF               	movlw	255
  4477     0027  3DA7               	addwfc	_delay_time+7,f
  4478     0028                     i1l75:
  4479     0028  107E               	bcf	int$flags,0	;clear compiler interrupt flag (level 1)
  4480     0029  0009               	retfie
  4481     002A                     __end_of_isr:
  4482     007E                     btemp	set	126	;btemp
  4483     007E                     int$flags	set	126
  4484     007E                     wtemp0	set	126
  4485                           
  4486                           	psect	idloc
  4487                           
  4488                           ;Config register IDLOC0 @ 0x8000
  4489                           ;	unspecified, using default values
  4490     8000                     	org	32768
  4491     8000  3FFF               	dw	16383
  4492                           
  4493                           ;Config register IDLOC1 @ 0x8001
  4494                           ;	unspecified, using default values
  4495     8001                     	org	32769
  4496     8001  3FFF               	dw	16383
  4497                           
  4498                           ;Config register IDLOC2 @ 0x8002
  4499                           ;	unspecified, using default values
  4500     8002                     	org	32770
  4501     8002  3FFF               	dw	16383
  4502                           
  4503                           ;Config register IDLOC3 @ 0x8003
  4504                           ;	unspecified, using default values
  4505     8003                     	org	32771
  4506     8003  3FFF               	dw	16383
  4507                           
  4508                           	psect	config
  4509                           
  4510                           ;Config register CONFIG1 @ 0x8007
  4511                           ;	External Oscillator mode selection bits
  4512                           ;	FEXTOSC = ECH, EC above 8MHz; PFM set to high power
  4513                           ;	Power-up default value for COSC bits
  4514                           ;	RSTOSC = HFINT32, HFINTOSC with OSCFRQ= 32 MHz and CDIV = 1:1
  4515                           ;	Clock Out Enable bit
  4516                           ;	CLKOUTEN = OFF, CLKOUT function is disabled; i/o or oscillator function on OSC2
  4517                           ;	Clock Switch Enable bit
  4518                           ;	CSWEN = ON, Writing to NOSC and NDIV is allowed
  4519                           ;	Fail-Safe Clock Monitor Enable bit
  4520                           ;	FCMEN = ON, FSCM timer enabled
  4521     8007                     	org	32775
  4522     8007  3F8F               	dw	16271
  4523                           
  4524                           ;Config register CONFIG2 @ 0x8008
  4525                           ;	Master Clear Enable bit
  4526                           ;	MCLRE = ON, MCLR pin is Master Clear function
  4527                           ;	Power-up Timer Enable bit
  4528                           ;	PWRTE = OFF, PWRT disabled
  4529                           ;	Low-Power BOR enable bit
  4530                           ;	LPBOREN = OFF, ULPBOR disabled
  4531                           ;	Brown-out reset enable bits
  4532                           ;	BOREN = ON, Brown-out Reset Enabled, SBOREN bit is ignored
  4533                           ;	Brown-out Reset Voltage Selection
  4534                           ;	BORV = LO, Brown-out Reset Voltage (VBOR) set to 1.9V on LF, and 2.45V on F Devices
  4535                           ;	Zero-cross detect disable
  4536                           ;	ZCD = OFF, Zero-cross detect circuit is disabled at POR.
  4537                           ;	Peripheral Pin Select one-way control
  4538                           ;	PPS1WAY = ON, The PPSLOCK bit can be cleared and set only once in software
  4539                           ;	Stack Overflow/Underflow Reset Enable bit
  4540                           ;	STVREN = ON, Stack Overflow or Underflow will cause a reset
  4541                           ;	Background Debugger
  4542                           ;	DEBUG = 0x1, unprogrammed default
  4543     8008                     	org	32776
  4544     8008  3FFF               	dw	16383
  4545                           
  4546                           ;Config register CONFIG3 @ 0x8009
  4547                           ;	WDT Period Select bits
  4548                           ;	WDTCPS = WDTCPS_31, Divider ratio 1:65536; software control of WDTPS
  4549                           ;	WDT operating mode
  4550                           ;	WDTE = OFF, WDT Disabled, SWDTEN is ignored
  4551                           ;	WDT Window Select bits
  4552                           ;	WDTCWS = WDTCWS_7, window always open (100%); software control; keyed access not requi
      +                          red
  4553                           ;	WDT input clock selector
  4554                           ;	WDTCCS = SC, Software Control
  4555     8009                     	org	32777
  4556     8009  3F9F               	dw	16287
  4557                           
  4558                           ;Config register CONFIG4 @ 0x800A
  4559                           ;	UserNVM self-write protection bits
  4560                           ;	WRT = OFF, Write protection off
  4561                           ;	Scanner Enable bit
  4562                           ;	SCANE = available, Scanner module is available for use
  4563                           ;	Low Voltage Programming Enable bit
  4564                           ;	LVP = ON, Low Voltage programming enabled. MCLR/Vpp pin function is MCLR.
  4565     800A                     	org	32778
  4566     800A  3FFF               	dw	16383
  4567                           
  4568                           ;Config register CONFIG5 @ 0x800B
  4569                           ;	UserNVM Program memory code protection bit
  4570                           ;	CP = OFF, Program Memory code protection disabled
  4571                           ;	DataNVM code protection bit
  4572                           ;	CPD = OFF, Data EEPROM code protection disabled
  4573     800B                     	org	32779
  4574     800B  3FFF               	dw	16383

Data Sizes:
    Strings     14
    Constant    0
    Data        0
    BSS         0
    Persistent  40
    Stack       0

Auto Spaces:
    Space          Size  Autos    Used
    COMMON           14     14      14
    BANK0            80      3      11
    BANK1            80      0       0
    BANK2            80      0       0
    BANK3            80      0       0
    BANK4            80      0       0
    BANK5            80      0       0
    BANK6            80      0       0
    BANK7            80      0       0
    BANK8            80      0       0
    BANK9            80      0       0
    BANK10           80      0       0
    BANK11           80      0       0
    BANK12           80      0       0
    BANK13           80      0       0
    BANK14           80      0       0
    BANK15           80      0       0
    BANK16           80      0       0
    BANK17           80      0       0
    BANK18           80      0       0
    BANK19           80      0       0
    BANK20           80      0       0
    BANK21           80      0       0
    BANK22           80      0       0
    BANK23           80      0       0
    BANK24           80      0       0
    BANK25           80      0       0
    BANK26           80      0       0
    BANK27           80      0       0
    BANK28           80      0       0
    BANK29           80      0       0
    BANK30           80      0       0
    BANK31           80      0       0
    BANK32           80      0       0
    BANK33           80      0       0
    BANK34           80      0       0
    BANK35           80      0       0
    BANK36           80      0       0
    BANK37           80      0       0
    BANK38           80      0       0
    BANK39           80      0       0
    BANK40           80      0       0
    BANK41           80      0       0
    BANK42           80      0       0
    BANK43           80      0       0
    BANK44           80      0       0
    BANK45           80      0       0
    BANK46           80      0       0
    BANK47           80      0       0
    BANK48           80      0       0
    BANK49           80      0       0
    BANK50           80      0       0

Pointer List with Targets:

    delay@f	PTR FTN()void  size(2) Largest target is 1
		 -> Absolute function(), 

    lcd_display_message@mess	PTR const unsigned char  size(2) Largest target is 14
		 -> STR_1(CODE[14]), 


Critical Paths under _main in COMMON

    _main->_lcd_display_cursor
    _main->_lcd_display_message
    _lcd_init->_lcd_cmd
    _lcd_display_message->_lcd_char
    _lcd_char->_delay
    _lcd_display_cursor->_lcd_cmd
    _lcd_cmd->_delay

Critical Paths under _isr in COMMON

    None.

Critical Paths under _main in BANK0

    _main->_lcd_display_message

Critical Paths under _isr in BANK0

    None.

Critical Paths under _main in BANK1

    None.

Critical Paths under _isr in BANK1

    None.

Critical Paths under _main in BANK2

    None.

Critical Paths under _isr in BANK2

    None.

Critical Paths under _main in BANK3

    None.

Critical Paths under _isr in BANK3

    None.

Critical Paths under _main in BANK4

    None.

Critical Paths under _isr in BANK4

    None.

Critical Paths under _main in BANK5

    None.

Critical Paths under _isr in BANK5

    None.

Critical Paths under _main in BANK6

    None.

Critical Paths under _isr in BANK6

    None.

Critical Paths under _main in BANK7

    None.

Critical Paths under _isr in BANK7

    None.

Critical Paths under _main in BANK8

    None.

Critical Paths under _isr in BANK8

    None.

Critical Paths under _main in BANK9

    None.

Critical Paths under _isr in BANK9

    None.

Critical Paths under _main in BANK10

    None.

Critical Paths under _isr in BANK10

    None.

Critical Paths under _main in BANK11

    None.

Critical Paths under _isr in BANK11

    None.

Critical Paths under _main in BANK12

    None.

Critical Paths under _isr in BANK12

    None.

Critical Paths under _main in BANK13

    None.

Critical Paths under _isr in BANK13

    None.

Critical Paths under _main in BANK14

    None.

Critical Paths under _isr in BANK14

    None.

Critical Paths under _main in BANK15

    None.

Critical Paths under _isr in BANK15

    None.

Critical Paths under _main in BANK16

    None.

Critical Paths under _isr in BANK16

    None.

Critical Paths under _main in BANK17

    None.

Critical Paths under _isr in BANK17

    None.

Critical Paths under _main in BANK18

    None.

Critical Paths under _isr in BANK18

    None.

Critical Paths under _main in BANK19

    None.

Critical Paths under _isr in BANK19

    None.

Critical Paths under _main in BANK20

    None.

Critical Paths under _isr in BANK20

    None.

Critical Paths under _main in BANK21

    None.

Critical Paths under _isr in BANK21

    None.

Critical Paths under _main in BANK22

    None.

Critical Paths under _isr in BANK22

    None.

Critical Paths under _main in BANK23

    None.

Critical Paths under _isr in BANK23

    None.

Critical Paths under _main in BANK24

    None.

Critical Paths under _isr in BANK24

    None.

Critical Paths under _main in BANK25

    None.

Critical Paths under _isr in BANK25

    None.

Critical Paths under _main in BANK26

    None.

Critical Paths under _isr in BANK26

    None.

Critical Paths under _main in BANK27

    None.

Critical Paths under _isr in BANK27

    None.

Critical Paths under _main in BANK28

    None.

Critical Paths under _isr in BANK28

    None.

Critical Paths under _main in BANK29

    None.

Critical Paths under _isr in BANK29

    None.

Critical Paths under _main in BANK30

    None.

Critical Paths under _isr in BANK30

    None.

Critical Paths under _main in BANK31

    None.

Critical Paths under _isr in BANK31

    None.

Critical Paths under _main in BANK32

    None.

Critical Paths under _isr in BANK32

    None.

Critical Paths under _main in BANK33

    None.

Critical Paths under _isr in BANK33

    None.

Critical Paths under _main in BANK34

    None.

Critical Paths under _isr in BANK34

    None.

Critical Paths under _main in BANK35

    None.

Critical Paths under _isr in BANK35

    None.

Critical Paths under _main in BANK36

    None.

Critical Paths under _isr in BANK36

    None.

Critical Paths under _main in BANK37

    None.

Critical Paths under _isr in BANK37

    None.

Critical Paths under _main in BANK38

    None.

Critical Paths under _isr in BANK38

    None.

Critical Paths under _main in BANK39

    None.

Critical Paths under _isr in BANK39

    None.

Critical Paths under _main in BANK40

    None.

Critical Paths under _isr in BANK40

    None.

Critical Paths under _main in BANK41

    None.

Critical Paths under _isr in BANK41

    None.

Critical Paths under _main in BANK42

    None.

Critical Paths under _isr in BANK42

    None.

Critical Paths under _main in BANK43

    None.

Critical Paths under _isr in BANK43

    None.

Critical Paths under _main in BANK44

    None.

Critical Paths under _isr in BANK44

    None.

Critical Paths under _main in BANK45

    None.

Critical Paths under _isr in BANK45

    None.

Critical Paths under _main in BANK46

    None.

Critical Paths under _isr in BANK46

    None.

Critical Paths under _main in BANK47

    None.

Critical Paths under _isr in BANK47

    None.

Critical Paths under _main in BANK48

    None.

Critical Paths under _isr in BANK48

    None.

Critical Paths under _main in BANK49

    None.

Critical Paths under _isr in BANK49

    None.

Critical Paths under _main in BANK50

    None.

Critical Paths under _isr in BANK50

    None.

Call Graph Tables:

 ---------------------------------------------------------------------------------
 (Depth) Function   	        Calls       Base Space   Used Autos Params    Refs
 ---------------------------------------------------------------------------------
 (0) _main                                                 0     0      0    9265
                              _delay
                         _delay_init
                 _lcd_display_cursor
                _lcd_display_message
                           _lcd_init
 ---------------------------------------------------------------------------------
 (1) _lcd_init                                             0     0      0    3520
                              _delay
                            _lcd_cmd
 ---------------------------------------------------------------------------------
 (1) _lcd_display_message                                  5     3      2    1970
                                             12 COMMON     2     0      2
                                              0 BANK0      3     3      0
                           _lcd_char
 ---------------------------------------------------------------------------------
 (2) _lcd_char                                             2     2      0    1804
                                             10 COMMON     2     2      0
                              _delay
 ---------------------------------------------------------------------------------
 (1) _lcd_display_cursor                                   2     1      1    2059
                                             12 COMMON     2     1      1
                            _lcd_cmd
 ---------------------------------------------------------------------------------
 (2) _lcd_cmd                                              2     2      0    1804
                                             10 COMMON     2     2      0
                              _delay
 ---------------------------------------------------------------------------------
 (3) _delay                                               10     0     10    1716
                                              0 COMMON    10     0     10
 ---------------------------------------------------------------------------------
 (1) _delay_init                                           0     0      0       0
 ---------------------------------------------------------------------------------
 Estimated maximum stack depth 3
 ---------------------------------------------------------------------------------
 (Depth) Function   	        Calls       Base Space   Used Autos Params    Refs
 ---------------------------------------------------------------------------------
 (4) _isr                                                  0     0      0       0
 ---------------------------------------------------------------------------------
 Estimated maximum stack depth 4
 ---------------------------------------------------------------------------------

 Call Graph Graphs:

 _main (ROOT)
   _delay
   _delay_init
   _lcd_display_cursor
     _lcd_cmd
       _delay
   _lcd_display_message
     _lcd_char
       _delay
   _lcd_init
     _delay
     _lcd_cmd

 _isr (ROOT)

 Address spaces:
Name               Size   Autos  Total    Cost      Usage
BIGRAM             FF0      0       0       0        0.0%
EEDATA             100      0       0       0        0.0%
NULL                 0      0       0       0        0.0%
CODE                 0      0       0       0        0.0%
BITCOMMON            E      0       0       1        0.0%
BITSFR0              0      0       0       1        0.0%
SFR0                 0      0       0       1        0.0%
COMMON               E      E       E       2      100.0%
BITSFR1              0      0       0       2        0.0%
SFR1                 0      0       0       2        0.0%
BITSFR2              0      0       0       3        0.0%
SFR2                 0      0       0       3        0.0%
STACK                0      0       0       3        0.0%
BITBANK0            50      0       0       4        0.0%
BITSFR3              0      0       0       4        0.0%
SFR3                 0      0       0       4        0.0%
BANK0               50      3       B       5       13.8%
BITSFR4              0      0       0       5        0.0%
SFR4                 0      0       0       5        0.0%
BITBANK1            50      0       0       6        0.0%
BITSFR5              0      0       0       6        0.0%
SFR5                 0      0       0       6        0.0%
BANK1               50      0       0       7        0.0%
BITSFR6              0      0       0       7        0.0%
SFR6                 0      0       0       7        0.0%
BITBANK2            50      0       0       8        0.0%
BITSFR7              0      0       0       8        0.0%
SFR7                 0      0       0       8        0.0%
BANK2               50      0       0       9        0.0%
BITSFR8              0      0       0       9        0.0%
SFR8                 0      0       0       9        0.0%
BITBANK3            50      0       0      10        0.0%
BITSFR9              0      0       0      10        0.0%
SFR9                 0      0       0      10        0.0%
BANK3               50      0       0      11        0.0%
BITSFR10             0      0       0      11        0.0%
SFR10                0      0       0      11        0.0%
BITBANK4            50      0       0      12        0.0%
BITSFR11             0      0       0      12        0.0%
SFR11                0      0       0      12        0.0%
BANK4               50      0       0      13        0.0%
BITSFR12             0      0       0      13        0.0%
SFR12                0      0       0      13        0.0%
BITBANK5            50      0       0      14        0.0%
BITSFR13             0      0       0      14        0.0%
SFR13                0      0       0      14        0.0%
BANK5               50      0       0      15        0.0%
BITSFR14             0      0       0      15        0.0%
SFR14                0      0       0      15        0.0%
BITBANK6            50      0       0      16        0.0%
BITSFR15             0      0       0      16        0.0%
SFR15                0      0       0      16        0.0%
BANK6               50      0       0      17        0.0%
BITSFR16             0      0       0      17        0.0%
SFR16                0      0       0      17        0.0%
BITBANK7            50      0       0      18        0.0%
BITSFR17             0      0       0      18        0.0%
SFR17                0      0       0      18        0.0%
BANK7               50      0       0      19        0.0%
BITSFR18             0      0       0      19        0.0%
SFR18                0      0       0      19        0.0%
BITBANK8            50      0       0      20        0.0%
BITSFR19             0      0       0      20        0.0%
SFR19                0      0       0      20        0.0%
BANK8               50      0       0      21        0.0%
BITSFR20             0      0       0      21        0.0%
SFR20                0      0       0      21        0.0%
BITBANK9            50      0       0      22        0.0%
BITSFR21             0      0       0      22        0.0%
SFR21                0      0       0      22        0.0%
BANK9               50      0       0      23        0.0%
BITSFR22             0      0       0      23        0.0%
SFR22                0      0       0      23        0.0%
BITBANK10           50      0       0      24        0.0%
BITSFR23             0      0       0      24        0.0%
SFR23                0      0       0      24        0.0%
BANK10              50      0       0      25        0.0%
BITSFR24             0      0       0      25        0.0%
SFR24                0      0       0      25        0.0%
BITBANK11           50      0       0      26        0.0%
BITSFR25             0      0       0      26        0.0%
SFR25                0      0       0      26        0.0%
BANK11              50      0       0      27        0.0%
BITSFR26             0      0       0      27        0.0%
SFR26                0      0       0      27        0.0%
BITSFR27             0      0       0      28        0.0%
SFR27                0      0       0      28        0.0%
ABS                  0      0      19      28        0.0%
BITBANK12           50      0       0      29        0.0%
BITSFR28             0      0       0      29        0.0%
SFR28                0      0       0      29        0.0%
BANK12              50      0       0      30        0.0%
BITSFR29             0      0       0      30        0.0%
SFR29                0      0       0      30        0.0%
BITBANK13           50      0       0      31        0.0%
BITSFR30             0      0       0      31        0.0%
SFR30                0      0       0      31        0.0%
BANK13              50      0       0      32        0.0%
BITSFR31             0      0       0      32        0.0%
SFR31                0      0       0      32        0.0%
BITBANK14           50      0       0      33        0.0%
BITSFR32             0      0       0      33        0.0%
SFR32                0      0       0      33        0.0%
BANK14              50      0       0      34        0.0%
BITSFR33             0      0       0      34        0.0%
SFR33                0      0       0      34        0.0%
BITBANK15           50      0       0      35        0.0%
BITSFR34             0      0       0      35        0.0%
SFR34                0      0       0      35        0.0%
BANK15              50      0       0      36        0.0%
BITSFR35             0      0       0      36        0.0%
SFR35                0      0       0      36        0.0%
BITBANK16           50      0       0      37        0.0%
BITSFR36             0      0       0      37        0.0%
SFR36                0      0       0      37        0.0%
BANK16              50      0       0      38        0.0%
BITSFR37             0      0       0      38        0.0%
SFR37                0      0       0      38        0.0%
BITBANK17           50      0       0      39        0.0%
BITSFR38             0      0       0      39        0.0%
SFR38                0      0       0      39        0.0%
BANK17              50      0       0      40        0.0%
BITSFR39             0      0       0      40        0.0%
SFR39                0      0       0      40        0.0%
BITBANK18           50      0       0      41        0.0%
BITSFR40             0      0       0      41        0.0%
SFR40                0      0       0      41        0.0%
BANK18              50      0       0      42        0.0%
BITSFR41             0      0       0      42        0.0%
SFR41                0      0       0      42        0.0%
BITBANK19           50      0       0      43        0.0%
BITSFR42             0      0       0      43        0.0%
SFR42                0      0       0      43        0.0%
BANK19              50      0       0      44        0.0%
BITSFR43             0      0       0      44        0.0%
SFR43                0      0       0      44        0.0%
BITBANK20           50      0       0      45        0.0%
BITSFR44             0      0       0      45        0.0%
SFR44                0      0       0      45        0.0%
BANK20              50      0       0      46        0.0%
BITSFR45             0      0       0      46        0.0%
SFR45                0      0       0      46        0.0%
BITBANK21           50      0       0      47        0.0%
BITSFR46             0      0       0      47        0.0%
SFR46                0      0       0      47        0.0%
BANK21              50      0       0      48        0.0%
BITSFR47             0      0       0      48        0.0%
SFR47                0      0       0      48        0.0%
BITBANK22           50      0       0      49        0.0%
BITSFR48             0      0       0      49        0.0%
SFR48                0      0       0      49        0.0%
BANK22              50      0       0      50        0.0%
BITSFR49             0      0       0      50        0.0%
SFR49                0      0       0      50        0.0%
BITBANK23           50      0       0      51        0.0%
BITSFR50             0      0       0      51        0.0%
SFR50                0      0       0      51        0.0%
BANK23              50      0       0      52        0.0%
BITSFR51             0      0       0      52        0.0%
SFR51                0      0       0      52        0.0%
BITBANK24           50      0       0      53        0.0%
BITSFR52             0      0       0      53        0.0%
SFR52                0      0       0      53        0.0%
BANK24              50      0       0      54        0.0%
BITSFR53             0      0       0      54        0.0%
SFR53                0      0       0      54        0.0%
BITBANK25           50      0       0      55        0.0%
BITSFR54             0      0       0      55        0.0%
SFR54                0      0       0      55        0.0%
BANK25              50      0       0      56        0.0%
BITSFR55             0      0       0      56        0.0%
SFR55                0      0       0      56        0.0%
BITBANK26           50      0       0      57        0.0%
BITSFR56             0      0       0      57        0.0%
SFR56                0      0       0      57        0.0%
BANK26              50      0       0      58        0.0%
BITSFR57             0      0       0      58        0.0%
SFR57                0      0       0      58        0.0%
BITSFR58             0      0       0      59        0.0%
SFR58                0      0       0      59        0.0%
DATA                 0      0      19      59        0.0%
BITBANK27           50      0       0      60        0.0%
BITSFR59             0      0       0      60        0.0%
SFR59                0      0       0      60        0.0%
BANK27              50      0       0      61        0.0%
BITSFR60             0      0       0      61        0.0%
SFR60                0      0       0      61        0.0%
BITBANK28           50      0       0      62        0.0%
BITSFR61             0      0       0      62        0.0%
SFR61                0      0       0      62        0.0%
BANK28              50      0       0      63        0.0%
BITSFR62             0      0       0      63        0.0%
SFR62                0      0       0      63        0.0%
BITBANK29           50      0       0      64        0.0%
BITSFR63             0      0       0      64        0.0%
SFR63                0      0       0      64        0.0%
BANK29              50      0       0      65        0.0%
BITBANK30           50      0       0      66        0.0%
BANK30              50      0       0      67        0.0%
BITBANK31           50      0       0      68        0.0%
BANK31              50      0       0      69        0.0%
BITBANK32           50      0       0      70        0.0%
BANK32              50      0       0      71        0.0%
BITBANK33           50      0       0      72        0.0%
BANK33              50      0       0      73        0.0%
BITBANK34           50      0       0      74        0.0%
BANK34              50      0       0      75        0.0%
BITBANK35           50      0       0      76        0.0%
BANK35              50      0       0      77        0.0%
BITBANK36           50      0       0      78        0.0%
BANK36              50      0       0      79        0.0%
BITBANK37           50      0       0      80        0.0%
BANK37              50      0       0      81        0.0%
BITBANK38           50      0       0      82        0.0%
BANK38              50      0       0      83        0.0%
BITBANK39           50      0       0      84        0.0%
BANK39              50      0       0      85        0.0%
BITBANK40           50      0       0      86        0.0%
BANK40              50      0       0      87        0.0%
BITBANK41           50      0       0      88        0.0%
BANK41              50      0       0      89        0.0%
BITBANK42           50      0       0      90        0.0%
BANK42              50      0       0      91        0.0%
BITBANK43           50      0       0      92        0.0%
BANK43              50      0       0      93        0.0%
BITBANK44           50      0       0      94        0.0%
BANK44              50      0       0      95        0.0%
BITBANK45           50      0       0      96        0.0%
BANK45              50      0       0      97        0.0%
BITBANK46           50      0       0      98        0.0%
BANK46              50      0       0      99        0.0%
BITBANK47           50      0       0     100        0.0%
BANK47              50      0       0     101        0.0%
BITBANK48           50      0       0     102        0.0%
BANK48              50      0       0     103        0.0%
BITBANK49           50      0       0     104        0.0%
BANK49              50      0       0     105        0.0%
BITBANK50           50      0       0     106        0.0%
BANK50              50      0       0     107        0.0%


Microchip Technology PIC Macro Assembler V2.40 build 20220703182018 
Symbol Table                                                                                   Tue Mar 12 10:55:23 2024

                          l7 016C                           l10 0092                           l13 0130  
                         l19 01D7                           l29 0195                           l83 01AC  
                         l85 01B8                           l78 01ED                          l801 01E6  
                        l803 01EB                          l901 011D                          l903 0121  
                        l911 005A                          l921 01BD                          l913 005D  
                        l905 0030                          l931 0174                          l923 01C7  
                        l915 006E                          l907 0046                          l941 018D  
                        l933 0179                          l925 01CC                          l917 0071  
                        l909 0049                          l935 017D                          l943 0190  
                        l927 016E                          l919 01B9                          l951 009A  
                        l937 0183                          l961 00CE                          l953 009D  
                        l945 0093                          l883 01AC                          l875 0196  
                        l891 015A                          l939 0187                          l963 00D3  
                        l955 00A0                          l947 0096                          l877 0198  
                        l893 015D                          l885 0132                          l965 00DA  
                        l957 00B6                          l949 0097                          l879 019A  
                        l887 0146                          l895 00F4                          l959 00B8  
                        l889 0155                          l897 0109                          l899 0118  
                        u220 01D7                          u205 00F7                          u221 01D6  
                        u230 0173                          u231 0172                          u215 0102  
                        u240 0179                          u241 0178                          u170 01B8  
                        u250 0183                          u171 01B7                          u251 0182  
                        u260 018D                          u261 018C                          u185 0135  
                        u195 0140                          _isr 0004                          wreg 0009  
                       ?_isr 0070                         STR_1 01D8                         _LATA 0016  
                       _LATB 0017                         i1l75 0028                         _main 0093  
                       fsr0h 0005                         indf0 0000                         fsr0l 0004  
                       btemp 007E                         start 002A   lcd_display_cursor@position 007C  
         _lcd_display_cursor 016D                        ??_isr 0070                        ?_main 0070  
                      _ADPCH 009E          ?_lcd_display_cursor 007C                        i1l971 0018  
                      i1l967 0006                        i1l969 0009                        _TMR0L 001C  
                      u27_20 0018                        u27_21 0017                        _TRISA 0011  
                      _TRISB 0012              __end_of_lcd_cmd 016D                        _delay 0196  
                      status 0003         ??_lcd_display_cursor 007D                        wtemp0 007E  
            __initialization 002C                 __end_of_main 00F3          _lcd_display_message 01B9  
       lcd_display_message@i 0029                       ??_main 007E                       ?_delay 0070  
                     _ADCON0 0093                       _ADRESH 008D                       _ADRESL 008C  
                     _ANSELA 1F38                       _T0CON0 001E                       _T0CON1 001F  
       ?_lcd_display_message 007C             __end_of_lcd_char 0131             __end_of_lcd_init 0093  
    lcd_display_message@mess 007C                       delay@f 0078                       delay@t 0070  
                  ??_lcd_cmd 007A        ??_lcd_display_message 0028      __end_of__initialization 002C  
             __pcstackCOMMON 0070                __end_of_delay 01B9                      ??_delay 007A  
                 _delay_init 01E6                   _delay_time 0020                   __pmaintext 0093  
                 __pintentry 0004                    ?_lcd_char 0070                    ?_lcd_init 0070  
                    __ptext1 0030                      __ptext2 01B9                      __ptext3 00F3  
                    __ptext4 016D                      __ptext5 0131                      __ptext6 0196  
                    __ptext7 01E6                      _lcd_cmd 0131                   ??_lcd_char 007A  
                 ??_lcd_init 007C         end_of_initialization 002C                  ?_delay_init 0070  
                 lcd_cmd@cmd 007B  __end_of_lcd_display_message 01D8          start_initialization 002C  
                __end_of_isr 002A       lcd_display_cursor@line 007D                    ___latbits 0004  
              __pcstackBANK0 0028                    __pnvBANK0 0020                     ?_lcd_cmd 0070  
                   _PIE0bits 0716                 ??_delay_init 0070                     _PIR0bits 070C  
                  lcd_char@c 007B                   _ADCON0bits 0093           __end_of_delay_init 01EE  
 __end_of_lcd_display_cursor 0196                     _lcd_char 00F3                     _lcd_init 0030  
                   int$flags 007E                   _INTCONbits 000B                     intlevel1 0000  
              __pstringtext1 01D8                __pstringtext2 0000  
